SF:/home/james/Projects/VibeEye/crates/vibeeye-app/src/browser/engine.rs
FN:129,_RNvXs_NtNtCskaWsK9vzoU7_11vibeeye_app7browser6engineNtB4_11ServoEngineNtNtNtCs8nPosuWgJFh_4core3ops4drop4Drop4drop
FN:93,_RNCNCNvMNtNtCskaWsK9vzoU7_11vibeeye_app7browser6engineNtB6_11ServoEngine8get_html00Ba_
FN:95,_RNCNCNvMNtNtCskaWsK9vzoU7_11vibeeye_app7browser6engineNtB6_11ServoEngine8get_html0s_0Ba_
FN:83,_RNCNCNvMNtNtCskaWsK9vzoU7_11vibeeye_app7browser6engineNtB6_11ServoEngine8navigate00Ba_
FN:85,_RNCNCNvMNtNtCskaWsK9vzoU7_11vibeeye_app7browser6engineNtB6_11ServoEngine8navigate0s_0Ba_
FN:62,_RNCNvMNtNtCskaWsK9vzoU7_11vibeeye_app7browser6engineNtB4_11ServoEngine3new0B8_
FN:70,_RNCNvMNtNtCskaWsK9vzoU7_11vibeeye_app7browser6engineNtB4_11ServoEngine3news0_0B8_
FN:67,_RNCNvMNtNtCskaWsK9vzoU7_11vibeeye_app7browser6engineNtB4_11ServoEngine3news_0B8_
FN:89,_RNCNvMNtNtCskaWsK9vzoU7_11vibeeye_app7browser6engineNtB4_11ServoEngine8get_html0B8_
FN:76,_RNCNvMNtNtCskaWsK9vzoU7_11vibeeye_app7browser6engineNtB4_11ServoEngine8navigate0B8_
FN:169,_RNCNvNtNtCskaWsK9vzoU7_11vibeeye_app7browser6engine10run_engine0B7_
FN:174,_RNCNvNtNtCskaWsK9vzoU7_11vibeeye_app7browser6engine10run_engines_0B7_
FN:291,_RNCNvNtNtCskaWsK9vzoU7_11vibeeye_app7browser6engine12get_html_cmd0B7_
FN:300,_RNCNvNtNtCskaWsK9vzoU7_11vibeeye_app7browser6engine12get_text_cmd0B7_
FN:262,_RNCNvNtNtCskaWsK9vzoU7_11vibeeye_app7browser6engine12navigate_cmd0B7_
FN:49,_RNvMNtNtCskaWsK9vzoU7_11vibeeye_app7browser6engineNtB2_11ServoEngine3new
FN:89,_RNvMNtNtCskaWsK9vzoU7_11vibeeye_app7browser6engineNtB2_11ServoEngine8get_html
FN:99,_RNvMNtNtCskaWsK9vzoU7_11vibeeye_app7browser6engineNtB2_11ServoEngine8get_text
FN:76,_RNvMNtNtCskaWsK9vzoU7_11vibeeye_app7browser6engineNtB2_11ServoEngine8navigate
FN:109,_RNvMNtNtCskaWsK9vzoU7_11vibeeye_app7browser6engineNtB2_11ServoEngine8shutdown
FN:157,_RNvNtNtCskaWsK9vzoU7_11vibeeye_app7browser6engine10run_engine
FN:135,_RNvNtNtCskaWsK9vzoU7_11vibeeye_app7browser6engine11await_ready
FN:288,_RNvNtNtCskaWsK9vzoU7_11vibeeye_app7browser6engine12get_html_cmd
FN:297,_RNvNtNtCskaWsK9vzoU7_11vibeeye_app7browser6engine12get_text_cmd
FN:256,_RNvNtNtCskaWsK9vzoU7_11vibeeye_app7browser6engine12navigate_cmd
FN:220,_RNvNtNtCskaWsK9vzoU7_11vibeeye_app7browser6engine14handle_command
FN:318,_RNvXs0_NtNtCskaWsK9vzoU7_11vibeeye_app7browser6engineNtB5_18EventLoopWakerImplNtCsiQLFcfdRreM_15embedder_traits14EventLoopWaker4wake
FN:314,_RNvXs0_NtNtCskaWsK9vzoU7_11vibeeye_app7browser6engineNtB5_18EventLoopWakerImplNtCsiQLFcfdRreM_15embedder_traits14EventLoopWaker9clone_box
FN:343,_RNvXs1_NtNtCskaWsK9vzoU7_11vibeeye_app7browser6engineNtB5_23HeadlessWebViewDelegateNtNtCsjDRdJnZskRZ_5servo16webview_delegate15WebViewDelegate14notify_crashed
FN:331,_RNvXs1_NtNtCskaWsK9vzoU7_11vibeeye_app7browser6engineNtB5_23HeadlessWebViewDelegateNtNtCsjDRdJnZskRZ_5servo16webview_delegate15WebViewDelegate18notify_url_changed
FN:339,_RNvXs1_NtNtCskaWsK9vzoU7_11vibeeye_app7browser6engineNtB5_23HeadlessWebViewDelegateNtNtCsjDRdJnZskRZ_5servo16webview_delegate15WebViewDelegate22notify_new_frame_ready
FN:335,_RNvXs1_NtNtCskaWsK9vzoU7_11vibeeye_app7browser6engineNtB5_23HeadlessWebViewDelegateNtNtCsjDRdJnZskRZ_5servo16webview_delegate15WebViewDelegate26notify_load_status_changed
FN:129,_RNvXs_NtNtCs8KrzqRtvcCn_11vibeeye_app7browser6engineNtB4_11ServoEngineNtNtNtCs8nPosuWgJFh_4core3ops4drop4Drop4drop
FN:103,_RNCNCNvMNtNtCs8KrzqRtvcCn_11vibeeye_app7browser6engineNtB6_11ServoEngine8get_text00Ba_
FN:105,_RNCNCNvMNtNtCs8KrzqRtvcCn_11vibeeye_app7browser6engineNtB6_11ServoEngine8get_text0s_0Ba_
FN:62,_RNCNvMNtNtCs8KrzqRtvcCn_11vibeeye_app7browser6engineNtB4_11ServoEngine3new0B8_
FN:70,_RNCNvMNtNtCs8KrzqRtvcCn_11vibeeye_app7browser6engineNtB4_11ServoEngine3news0_0B8_
FN:67,_RNCNvMNtNtCs8KrzqRtvcCn_11vibeeye_app7browser6engineNtB4_11ServoEngine3news_0B8_
FN:99,_RNCNvMNtNtCs8KrzqRtvcCn_11vibeeye_app7browser6engineNtB4_11ServoEngine8get_text0B8_
FN:169,_RNCNvNtNtCs8KrzqRtvcCn_11vibeeye_app7browser6engine10run_engine0B7_
FN:174,_RNCNvNtNtCs8KrzqRtvcCn_11vibeeye_app7browser6engine10run_engines_0B7_
FN:291,_RNCNvNtNtCs8KrzqRtvcCn_11vibeeye_app7browser6engine12get_html_cmd0B7_
FN:300,_RNCNvNtNtCs8KrzqRtvcCn_11vibeeye_app7browser6engine12get_text_cmd0B7_
FN:262,_RNCNvNtNtCs8KrzqRtvcCn_11vibeeye_app7browser6engine12navigate_cmd0B7_
FN:49,_RNvMNtNtCs8KrzqRtvcCn_11vibeeye_app7browser6engineNtB2_11ServoEngine3new
FN:99,_RNvMNtNtCs8KrzqRtvcCn_11vibeeye_app7browser6engineNtB2_11ServoEngine8get_text
FN:157,_RNvNtNtCs8KrzqRtvcCn_11vibeeye_app7browser6engine10run_engine
FN:135,_RNvNtNtCs8KrzqRtvcCn_11vibeeye_app7browser6engine11await_ready
FN:288,_RNvNtNtCs8KrzqRtvcCn_11vibeeye_app7browser6engine12get_html_cmd
FN:297,_RNvNtNtCs8KrzqRtvcCn_11vibeeye_app7browser6engine12get_text_cmd
FN:256,_RNvNtNtCs8KrzqRtvcCn_11vibeeye_app7browser6engine12navigate_cmd
FN:220,_RNvNtNtCs8KrzqRtvcCn_11vibeeye_app7browser6engine14handle_command
FN:318,_RNvXs0_NtNtCs8KrzqRtvcCn_11vibeeye_app7browser6engineNtB5_18EventLoopWakerImplNtCsiQLFcfdRreM_15embedder_traits14EventLoopWaker4wake
FN:314,_RNvXs0_NtNtCs8KrzqRtvcCn_11vibeeye_app7browser6engineNtB5_18EventLoopWakerImplNtCsiQLFcfdRreM_15embedder_traits14EventLoopWaker9clone_box
FN:343,_RNvXs1_NtNtCs8KrzqRtvcCn_11vibeeye_app7browser6engineNtB5_23HeadlessWebViewDelegateNtNtCsjDRdJnZskRZ_5servo16webview_delegate15WebViewDelegate14notify_crashed
FN:331,_RNvXs1_NtNtCs8KrzqRtvcCn_11vibeeye_app7browser6engineNtB5_23HeadlessWebViewDelegateNtNtCsjDRdJnZskRZ_5servo16webview_delegate15WebViewDelegate18notify_url_changed
FN:339,_RNvXs1_NtNtCs8KrzqRtvcCn_11vibeeye_app7browser6engineNtB5_23HeadlessWebViewDelegateNtNtCsjDRdJnZskRZ_5servo16webview_delegate15WebViewDelegate22notify_new_frame_ready
FN:335,_RNvXs1_NtNtCs8KrzqRtvcCn_11vibeeye_app7browser6engineNtB5_23HeadlessWebViewDelegateNtNtCsjDRdJnZskRZ_5servo16webview_delegate15WebViewDelegate26notify_load_status_changed
FN:93,_RNCNCNvMNtNtCs8KrzqRtvcCn_11vibeeye_app7browser6engineNtB6_11ServoEngine8get_html00Ba_
FN:95,_RNCNCNvMNtNtCs8KrzqRtvcCn_11vibeeye_app7browser6engineNtB6_11ServoEngine8get_html0s_0Ba_
FN:83,_RNCNCNvMNtNtCs8KrzqRtvcCn_11vibeeye_app7browser6engineNtB6_11ServoEngine8navigate00Ba_
FN:85,_RNCNCNvMNtNtCs8KrzqRtvcCn_11vibeeye_app7browser6engineNtB6_11ServoEngine8navigate0s_0Ba_
FN:89,_RNCNvMNtNtCs8KrzqRtvcCn_11vibeeye_app7browser6engineNtB4_11ServoEngine8get_html0B8_
FN:76,_RNCNvMNtNtCs8KrzqRtvcCn_11vibeeye_app7browser6engineNtB4_11ServoEngine8navigate0B8_
FN:89,_RNvMNtNtCs8KrzqRtvcCn_11vibeeye_app7browser6engineNtB2_11ServoEngine8get_html
FN:76,_RNvMNtNtCs8KrzqRtvcCn_11vibeeye_app7browser6engineNtB2_11ServoEngine8navigate
FN:109,_RNvMNtNtCs8KrzqRtvcCn_11vibeeye_app7browser6engineNtB2_11ServoEngine8shutdown
FNDA:2,_RNvXs_NtNtCskaWsK9vzoU7_11vibeeye_app7browser6engineNtB4_11ServoEngineNtNtNtCs8nPosuWgJFh_4core3ops4drop4Drop4drop
FNDA:0,_RNCNCNvMNtNtCskaWsK9vzoU7_11vibeeye_app7browser6engineNtB6_11ServoEngine8get_html00Ba_
FNDA:0,_RNCNCNvMNtNtCskaWsK9vzoU7_11vibeeye_app7browser6engineNtB6_11ServoEngine8get_html0s_0Ba_
FNDA:0,_RNCNCNvMNtNtCskaWsK9vzoU7_11vibeeye_app7browser6engineNtB6_11ServoEngine8navigate00Ba_
FNDA:0,_RNCNCNvMNtNtCskaWsK9vzoU7_11vibeeye_app7browser6engineNtB6_11ServoEngine8navigate0s_0Ba_
FNDA:4,_RNCNvMNtNtCskaWsK9vzoU7_11vibeeye_app7browser6engineNtB4_11ServoEngine3new0B8_
FNDA:2,_RNCNvMNtNtCskaWsK9vzoU7_11vibeeye_app7browser6engineNtB4_11ServoEngine3news0_0B8_
FNDA:0,_RNCNvMNtNtCskaWsK9vzoU7_11vibeeye_app7browser6engineNtB4_11ServoEngine3news_0B8_
FNDA:2,_RNCNvMNtNtCskaWsK9vzoU7_11vibeeye_app7browser6engineNtB4_11ServoEngine8get_html0B8_
FNDA:2,_RNCNvMNtNtCskaWsK9vzoU7_11vibeeye_app7browser6engineNtB4_11ServoEngine8navigate0B8_
FNDA:0,_RNCNvNtNtCskaWsK9vzoU7_11vibeeye_app7browser6engine10run_engine0B7_
FNDA:0,_RNCNvNtNtCskaWsK9vzoU7_11vibeeye_app7browser6engine10run_engines_0B7_
FNDA:0,_RNCNvNtNtCskaWsK9vzoU7_11vibeeye_app7browser6engine12get_html_cmd0B7_
FNDA:0,_RNCNvNtNtCskaWsK9vzoU7_11vibeeye_app7browser6engine12get_text_cmd0B7_
FNDA:0,_RNCNvNtNtCskaWsK9vzoU7_11vibeeye_app7browser6engine12navigate_cmd0B7_
FNDA:10,_RNvMNtNtCskaWsK9vzoU7_11vibeeye_app7browser6engineNtB2_11ServoEngine3new
FNDA:2,_RNvMNtNtCskaWsK9vzoU7_11vibeeye_app7browser6engineNtB2_11ServoEngine8get_html
FNDA:0,_RNvMNtNtCskaWsK9vzoU7_11vibeeye_app7browser6engineNtB2_11ServoEngine8get_text
FNDA:2,_RNvMNtNtCskaWsK9vzoU7_11vibeeye_app7browser6engineNtB2_11ServoEngine8navigate
FNDA:4,_RNvMNtNtCskaWsK9vzoU7_11vibeeye_app7browser6engineNtB2_11ServoEngine8shutdown
FNDA:4,_RNvNtNtCskaWsK9vzoU7_11vibeeye_app7browser6engine10run_engine
FNDA:4,_RNvNtNtCskaWsK9vzoU7_11vibeeye_app7browser6engine11await_ready
FNDA:2,_RNvNtNtCskaWsK9vzoU7_11vibeeye_app7browser6engine12get_html_cmd
FNDA:0,_RNvNtNtCskaWsK9vzoU7_11vibeeye_app7browser6engine12get_text_cmd
FNDA:2,_RNvNtNtCskaWsK9vzoU7_11vibeeye_app7browser6engine12navigate_cmd
FNDA:6,_RNvNtNtCskaWsK9vzoU7_11vibeeye_app7browser6engine14handle_command
FNDA:66,_RNvXs0_NtNtCskaWsK9vzoU7_11vibeeye_app7browser6engineNtB5_18EventLoopWakerImplNtCsiQLFcfdRreM_15embedder_traits14EventLoopWaker4wake
FNDA:38,_RNvXs0_NtNtCskaWsK9vzoU7_11vibeeye_app7browser6engineNtB5_18EventLoopWakerImplNtCsiQLFcfdRreM_15embedder_traits14EventLoopWaker9clone_box
FNDA:0,_RNvXs1_NtNtCskaWsK9vzoU7_11vibeeye_app7browser6engineNtB5_23HeadlessWebViewDelegateNtNtCsjDRdJnZskRZ_5servo16webview_delegate15WebViewDelegate14notify_crashed
FNDA:2,_RNvXs1_NtNtCskaWsK9vzoU7_11vibeeye_app7browser6engineNtB5_23HeadlessWebViewDelegateNtNtCsjDRdJnZskRZ_5servo16webview_delegate15WebViewDelegate18notify_url_changed
FNDA:23892,_RNvXs1_NtNtCskaWsK9vzoU7_11vibeeye_app7browser6engineNtB5_23HeadlessWebViewDelegateNtNtCsjDRdJnZskRZ_5servo16webview_delegate15WebViewDelegate22notify_new_frame_ready
FNDA:4,_RNvXs1_NtNtCskaWsK9vzoU7_11vibeeye_app7browser6engineNtB5_23HeadlessWebViewDelegateNtNtCsjDRdJnZskRZ_5servo16webview_delegate15WebViewDelegate26notify_load_status_changed
FNDA:0,_RNvXs_NtNtCs8KrzqRtvcCn_11vibeeye_app7browser6engineNtB4_11ServoEngineNtNtNtCs8nPosuWgJFh_4core3ops4drop4Drop4drop
FNDA:0,_RNCNCNvMNtNtCs8KrzqRtvcCn_11vibeeye_app7browser6engineNtB6_11ServoEngine8get_text00Ba_
FNDA:0,_RNCNCNvMNtNtCs8KrzqRtvcCn_11vibeeye_app7browser6engineNtB6_11ServoEngine8get_text0s_0Ba_
FNDA:0,_RNCNvMNtNtCs8KrzqRtvcCn_11vibeeye_app7browser6engineNtB4_11ServoEngine3new0B8_
FNDA:0,_RNCNvMNtNtCs8KrzqRtvcCn_11vibeeye_app7browser6engineNtB4_11ServoEngine3news0_0B8_
FNDA:0,_RNCNvMNtNtCs8KrzqRtvcCn_11vibeeye_app7browser6engineNtB4_11ServoEngine3news_0B8_
FNDA:0,_RNCNvMNtNtCs8KrzqRtvcCn_11vibeeye_app7browser6engineNtB4_11ServoEngine8get_text0B8_
FNDA:0,_RNCNvNtNtCs8KrzqRtvcCn_11vibeeye_app7browser6engine10run_engine0B7_
FNDA:0,_RNCNvNtNtCs8KrzqRtvcCn_11vibeeye_app7browser6engine10run_engines_0B7_
FNDA:0,_RNCNvNtNtCs8KrzqRtvcCn_11vibeeye_app7browser6engine12get_html_cmd0B7_
FNDA:0,_RNCNvNtNtCs8KrzqRtvcCn_11vibeeye_app7browser6engine12get_text_cmd0B7_
FNDA:0,_RNCNvNtNtCs8KrzqRtvcCn_11vibeeye_app7browser6engine12navigate_cmd0B7_
FNDA:0,_RNvMNtNtCs8KrzqRtvcCn_11vibeeye_app7browser6engineNtB2_11ServoEngine3new
FNDA:0,_RNvMNtNtCs8KrzqRtvcCn_11vibeeye_app7browser6engineNtB2_11ServoEngine8get_text
FNDA:0,_RNvNtNtCs8KrzqRtvcCn_11vibeeye_app7browser6engine10run_engine
FNDA:0,_RNvNtNtCs8KrzqRtvcCn_11vibeeye_app7browser6engine11await_ready
FNDA:0,_RNvNtNtCs8KrzqRtvcCn_11vibeeye_app7browser6engine12get_html_cmd
FNDA:0,_RNvNtNtCs8KrzqRtvcCn_11vibeeye_app7browser6engine12get_text_cmd
FNDA:0,_RNvNtNtCs8KrzqRtvcCn_11vibeeye_app7browser6engine12navigate_cmd
FNDA:0,_RNvNtNtCs8KrzqRtvcCn_11vibeeye_app7browser6engine14handle_command
FNDA:0,_RNvXs0_NtNtCs8KrzqRtvcCn_11vibeeye_app7browser6engineNtB5_18EventLoopWakerImplNtCsiQLFcfdRreM_15embedder_traits14EventLoopWaker4wake
FNDA:0,_RNvXs0_NtNtCs8KrzqRtvcCn_11vibeeye_app7browser6engineNtB5_18EventLoopWakerImplNtCsiQLFcfdRreM_15embedder_traits14EventLoopWaker9clone_box
FNDA:0,_RNvXs1_NtNtCs8KrzqRtvcCn_11vibeeye_app7browser6engineNtB5_23HeadlessWebViewDelegateNtNtCsjDRdJnZskRZ_5servo16webview_delegate15WebViewDelegate14notify_crashed
FNDA:0,_RNvXs1_NtNtCs8KrzqRtvcCn_11vibeeye_app7browser6engineNtB5_23HeadlessWebViewDelegateNtNtCsjDRdJnZskRZ_5servo16webview_delegate15WebViewDelegate18notify_url_changed
FNDA:0,_RNvXs1_NtNtCs8KrzqRtvcCn_11vibeeye_app7browser6engineNtB5_23HeadlessWebViewDelegateNtNtCsjDRdJnZskRZ_5servo16webview_delegate15WebViewDelegate22notify_new_frame_ready
FNDA:0,_RNvXs1_NtNtCs8KrzqRtvcCn_11vibeeye_app7browser6engineNtB5_23HeadlessWebViewDelegateNtNtCsjDRdJnZskRZ_5servo16webview_delegate15WebViewDelegate26notify_load_status_changed
FNDA:0,_RNCNCNvMNtNtCs8KrzqRtvcCn_11vibeeye_app7browser6engineNtB6_11ServoEngine8get_html00Ba_
FNDA:0,_RNCNCNvMNtNtCs8KrzqRtvcCn_11vibeeye_app7browser6engineNtB6_11ServoEngine8get_html0s_0Ba_
FNDA:0,_RNCNCNvMNtNtCs8KrzqRtvcCn_11vibeeye_app7browser6engineNtB6_11ServoEngine8navigate00Ba_
FNDA:0,_RNCNCNvMNtNtCs8KrzqRtvcCn_11vibeeye_app7browser6engineNtB6_11ServoEngine8navigate0s_0Ba_
FNDA:0,_RNCNvMNtNtCs8KrzqRtvcCn_11vibeeye_app7browser6engineNtB4_11ServoEngine8get_html0B8_
FNDA:0,_RNCNvMNtNtCs8KrzqRtvcCn_11vibeeye_app7browser6engineNtB4_11ServoEngine8navigate0B8_
FNDA:0,_RNvMNtNtCs8KrzqRtvcCn_11vibeeye_app7browser6engineNtB2_11ServoEngine8get_html
FNDA:0,_RNvMNtNtCs8KrzqRtvcCn_11vibeeye_app7browser6engineNtB2_11ServoEngine8navigate
FNDA:0,_RNvMNtNtCs8KrzqRtvcCn_11vibeeye_app7browser6engineNtB2_11ServoEngine8shutdown
FNF:35
FNH:19
DA:49,10
DA:50,10
DA:51,10
DA:52,6
DA:53,6
DA:54,6
DA:55,4
DA:57,4
DA:58,4
DA:60,4
DA:61,4
DA:62,4
DA:63,4
DA:64,2
DA:65,2
DA:66,4
DA:67,4
DA:69,4
DA:70,2
DA:71,2
DA:72,2
DA:73,10
DA:76,2
DA:77,2
DA:78,2
DA:79,2
DA:80,2
DA:81,2
DA:82,2
DA:83,2
DA:84,2
DA:85,2
DA:86,2
DA:89,2
DA:90,2
DA:91,2
DA:92,2
DA:93,2
DA:94,2
DA:95,2
DA:96,2
DA:99,0
DA:100,0
DA:101,0
DA:102,0
DA:103,0
DA:104,0
DA:105,0
DA:106,0
DA:109,4
DA:110,4
DA:111,4
DA:114,2
DA:115,407
DA:116,405
DA:117,0
DA:118,0
DA:119,405
DA:120,405
DA:122,2
DA:123,2
DA:124,2
DA:125,4
DA:129,2
DA:130,2
DA:131,2
DA:135,4
DA:136,4
DA:137,4
DA:138,4
DA:139,4
DA:140,2
DA:141,0
DA:142,0
DA:143,0
DA:144,0
DA:145,0
DA:148,2
DA:149,2
DA:150,2
DA:151,2
DA:154,4
DA:157,4
DA:158,4
DA:159,4
DA:160,4
DA:161,4
DA:162,4
DA:163,4
DA:164,4
DA:165,4
DA:167,4
DA:168,4
DA:169,4
DA:172,4
DA:173,4
DA:174,4
DA:176,4
DA:177,4
DA:178,4
DA:179,4
DA:180,4
DA:185,4
DA:187,4
DA:188,4
DA:190,4
DA:191,4
DA:192,4
DA:193,4
DA:195,4
DA:197,4
DA:198,0
DA:199,0
DA:200,0
DA:201,4
DA:203,4
DA:206,917
DA:208,921
DA:209,8
DA:210,4
DA:211,4
DA:214,913
DA:216,4
DA:220,6
DA:221,6
DA:222,6
DA:223,6
DA:224,6
DA:225,6
DA:226,6
DA:227,2
DA:228,2
DA:229,2
DA:230,2
DA:232,2
DA:233,2
DA:234,2
DA:235,2
DA:237,0
DA:238,0
DA:239,0
DA:240,0
DA:243,2
DA:244,2
DA:247,400
DA:248,400
DA:249,400
DA:250,400
DA:251,2
DA:254,6
DA:256,2
DA:257,2
DA:258,2
DA:259,2
DA:260,2
DA:261,2
DA:262,2
DA:264,2
DA:266,2
DA:267,2
DA:268,2
DA:269,2
DA:273,2
DA:274,2
DA:275,179381
DA:276,179379
DA:277,0
DA:278,0
DA:279,179379
DA:280,179379
DA:281,179379
DA:284,2
DA:285,2
DA:286,2
DA:288,2
DA:289,2
DA:290,2
DA:291,2
DA:293,2
DA:294,2
DA:295,2
DA:297,0
DA:298,0
DA:299,0
DA:300,0
DA:302,0
DA:303,0
DA:304,0
DA:314,38
DA:315,38
DA:316,38
DA:318,66
DA:319,66
DA:320,66
DA:331,2
DA:332,2
DA:333,2
DA:335,4
DA:336,4
DA:337,4
DA:339,23892
DA:340,23892
DA:341,23892
DA:343,0
DA:344,0
DA:345,0
BRF:0
BRH:0
LF:222
LH:175
end_of_record
SF:/home/james/Projects/VibeEye/crates/vibeeye-app/src/browser/mod.rs
FN:85,_RNCNCNvMNtCskaWsK9vzoU7_11vibeeye_app7browserNtB6_14BrowserSession8get_html00B8_
FN:62,_RNCNCNvMNtCskaWsK9vzoU7_11vibeeye_app7browserNtB6_14BrowserSession8navigate00B8_
FN:110,_RNCNvMNtCskaWsK9vzoU7_11vibeeye_app7browserNtB4_14BrowserSession5close0B6_
FN:80,_RNCNvMNtCskaWsK9vzoU7_11vibeeye_app7browserNtB4_14BrowserSession8get_html0B6_
FN:55,_RNCNvMNtCskaWsK9vzoU7_11vibeeye_app7browserNtB4_14BrowserSession8navigate0B6_
FN:75,_RNvMNtCskaWsK9vzoU7_11vibeeye_app7browserNtB2_14BrowserSession11current_url
FN:27,_RNvMNtCskaWsK9vzoU7_11vibeeye_app7browserNtB2_14BrowserSession3new
FN:110,_RNvMNtCskaWsK9vzoU7_11vibeeye_app7browserNtB2_14BrowserSession5close
FN:80,_RNvMNtCskaWsK9vzoU7_11vibeeye_app7browserNtB2_14BrowserSession8get_html
FN:96,_RNvMNtCskaWsK9vzoU7_11vibeeye_app7browserNtB2_14BrowserSession8get_text
FN:55,_RNvMNtCskaWsK9vzoU7_11vibeeye_app7browserNtB2_14BrowserSession8navigate
FN:119,_RNvXs_NtCskaWsK9vzoU7_11vibeeye_app7browserNtB4_14BrowserSessionNtNtCs8nPosuWgJFh_4core7default7Default7default
FN:85,_RNCNCNvMNtCs8KrzqRtvcCn_11vibeeye_app7browserNtB6_14BrowserSession8get_html00B8_
FN:62,_RNCNCNvMNtCs8KrzqRtvcCn_11vibeeye_app7browserNtB6_14BrowserSession8navigate00B8_
FN:110,_RNCNvMNtCs8KrzqRtvcCn_11vibeeye_app7browserNtB4_14BrowserSession5close0B6_
FN:80,_RNCNvMNtCs8KrzqRtvcCn_11vibeeye_app7browserNtB4_14BrowserSession8get_html0B6_
FN:55,_RNCNvMNtCs8KrzqRtvcCn_11vibeeye_app7browserNtB4_14BrowserSession8navigate0B6_
FN:101,_RNCNCNvMNtCs8KrzqRtvcCn_11vibeeye_app7browserNtB6_14BrowserSession8get_text00B8_
FN:96,_RNCNvMNtCs8KrzqRtvcCn_11vibeeye_app7browserNtB4_14BrowserSession8get_text0B6_
FN:96,_RNvMNtCs8KrzqRtvcCn_11vibeeye_app7browserNtB2_14BrowserSession8get_text
FN:119,_RNvXs_NtCs8KrzqRtvcCn_11vibeeye_app7browserNtB4_14BrowserSessionNtNtCs8nPosuWgJFh_4core7default7Default7default
FN:75,_RNvMNtCs8KrzqRtvcCn_11vibeeye_app7browserNtB2_14BrowserSession11current_url
FN:27,_RNvMNtCs8KrzqRtvcCn_11vibeeye_app7browserNtB2_14BrowserSession3new
FN:110,_RNvMNtCs8KrzqRtvcCn_11vibeeye_app7browserNtB2_14BrowserSession5close
FN:80,_RNvMNtCs8KrzqRtvcCn_11vibeeye_app7browserNtB2_14BrowserSession8get_html
FN:55,_RNvMNtCs8KrzqRtvcCn_11vibeeye_app7browserNtB2_14BrowserSession8navigate
FNDA:0,_RNCNCNvMNtCskaWsK9vzoU7_11vibeeye_app7browserNtB6_14BrowserSession8get_html00B8_
FNDA:0,_RNCNCNvMNtCskaWsK9vzoU7_11vibeeye_app7browserNtB6_14BrowserSession8navigate00B8_
FNDA:10,_RNCNvMNtCskaWsK9vzoU7_11vibeeye_app7browserNtB4_14BrowserSession5close0B6_
FNDA:10,_RNCNvMNtCskaWsK9vzoU7_11vibeeye_app7browserNtB4_14BrowserSession8get_html0B6_
FNDA:10,_RNCNvMNtCskaWsK9vzoU7_11vibeeye_app7browserNtB4_14BrowserSession8navigate0B6_
FNDA:18,_RNvMNtCskaWsK9vzoU7_11vibeeye_app7browserNtB2_14BrowserSession11current_url
FNDA:10,_RNvMNtCskaWsK9vzoU7_11vibeeye_app7browserNtB2_14BrowserSession3new
FNDA:10,_RNvMNtCskaWsK9vzoU7_11vibeeye_app7browserNtB2_14BrowserSession5close
FNDA:10,_RNvMNtCskaWsK9vzoU7_11vibeeye_app7browserNtB2_14BrowserSession8get_html
FNDA:0,_RNvMNtCskaWsK9vzoU7_11vibeeye_app7browserNtB2_14BrowserSession8get_text
FNDA:10,_RNvMNtCskaWsK9vzoU7_11vibeeye_app7browserNtB2_14BrowserSession8navigate
FNDA:0,_RNvXs_NtCskaWsK9vzoU7_11vibeeye_app7browserNtB4_14BrowserSessionNtNtCs8nPosuWgJFh_4core7default7Default7default
FNDA:0,_RNCNCNvMNtCs8KrzqRtvcCn_11vibeeye_app7browserNtB6_14BrowserSession8get_html00B8_
FNDA:0,_RNCNCNvMNtCs8KrzqRtvcCn_11vibeeye_app7browserNtB6_14BrowserSession8navigate00B8_
FNDA:5,_RNCNvMNtCs8KrzqRtvcCn_11vibeeye_app7browserNtB4_14BrowserSession5close0B6_
FNDA:5,_RNCNvMNtCs8KrzqRtvcCn_11vibeeye_app7browserNtB4_14BrowserSession8get_html0B6_
FNDA:5,_RNCNvMNtCs8KrzqRtvcCn_11vibeeye_app7browserNtB4_14BrowserSession8navigate0B6_
FNDA:0,_RNCNCNvMNtCs8KrzqRtvcCn_11vibeeye_app7browserNtB6_14BrowserSession8get_text00B8_
FNDA:0,_RNCNvMNtCs8KrzqRtvcCn_11vibeeye_app7browserNtB4_14BrowserSession8get_text0B6_
FNDA:0,_RNvMNtCs8KrzqRtvcCn_11vibeeye_app7browserNtB2_14BrowserSession8get_text
FNDA:0,_RNvXs_NtCs8KrzqRtvcCn_11vibeeye_app7browserNtB4_14BrowserSessionNtNtCs8nPosuWgJFh_4core7default7Default7default
FNDA:10,_RNvMNtCs8KrzqRtvcCn_11vibeeye_app7browserNtB2_14BrowserSession11current_url
FNDA:5,_RNvMNtCs8KrzqRtvcCn_11vibeeye_app7browserNtB2_14BrowserSession3new
FNDA:5,_RNvMNtCs8KrzqRtvcCn_11vibeeye_app7browserNtB2_14BrowserSession5close
FNDA:5,_RNvMNtCs8KrzqRtvcCn_11vibeeye_app7browserNtB2_14BrowserSession8get_html
FNDA:5,_RNvMNtCs8KrzqRtvcCn_11vibeeye_app7browserNtB2_14BrowserSession8navigate
FNF:14
FNH:8
DA:27,15
DA:34,5
DA:37,10
DA:38,2
DA:39,2
DA:40,2
DA:42,8
DA:43,8
DA:44,8
DA:48,15
DA:49,15
DA:50,15
DA:51,15
DA:52,15
DA:55,15
DA:56,15
DA:58,15
DA:59,2
DA:60,2
DA:61,2
DA:62,2
DA:63,2
DA:64,13
DA:65,13
DA:66,13
DA:67,13
DA:68,13
DA:70,15
DA:71,15
DA:72,15
DA:75,28
DA:76,28
DA:77,28
DA:80,15
DA:81,15
DA:82,2
DA:83,2
DA:84,2
DA:85,2
DA:88,13
DA:89,13
DA:90,13
DA:91,13
DA:93,15
DA:96,0
DA:97,0
DA:98,0
DA:99,0
DA:100,0
DA:101,0
DA:104,0
DA:105,0
DA:107,0
DA:110,15
DA:111,15
DA:112,2
DA:113,13
DA:114,15
DA:115,15
DA:119,0
DA:120,0
DA:121,0
BRF:0
BRH:0
LF:68
LH:52
end_of_record
SF:/home/james/Projects/VibeEye/crates/vibeeye-app/src/browser/navigation.rs
FN:21,_RNvNtNtCskaWsK9vzoU7_11vibeeye_app7browser10navigation12extract_html
FN:53,_RNvNtNtCskaWsK9vzoU7_11vibeeye_app7browser10navigation12extract_text
FN:12,_RNvNtNtCskaWsK9vzoU7_11vibeeye_app7browser10navigation13wait_for_load
FN:29,_RNCNCNvNtNtCskaWsK9vzoU7_11vibeeye_app7browser10navigation12extract_html00B9_
FN:63,_RNCNCNvNtNtCskaWsK9vzoU7_11vibeeye_app7browser10navigation12extract_text00B9_
FN:27,_RNCNvNtNtCskaWsK9vzoU7_11vibeeye_app7browser10navigation12extract_html0B7_
FN:45,_RNCNvNtNtCskaWsK9vzoU7_11vibeeye_app7browser10navigation12extract_htmls_0B7_
FN:61,_RNCNvNtNtCskaWsK9vzoU7_11vibeeye_app7browser10navigation12extract_text0B7_
FN:80,_RNCNvNtNtCskaWsK9vzoU7_11vibeeye_app7browser10navigation12extract_texts_0B7_
FN:29,_RNCNCNvNtNtCs8KrzqRtvcCn_11vibeeye_app7browser10navigation12extract_html00B9_
FN:63,_RNCNCNvNtNtCs8KrzqRtvcCn_11vibeeye_app7browser10navigation12extract_text00B9_
FN:27,_RNCNvNtNtCs8KrzqRtvcCn_11vibeeye_app7browser10navigation12extract_html0B7_
FN:45,_RNCNvNtNtCs8KrzqRtvcCn_11vibeeye_app7browser10navigation12extract_htmls_0B7_
FN:61,_RNCNvNtNtCs8KrzqRtvcCn_11vibeeye_app7browser10navigation12extract_text0B7_
FN:80,_RNCNvNtNtCs8KrzqRtvcCn_11vibeeye_app7browser10navigation12extract_texts_0B7_
FN:21,_RNvNtNtCs8KrzqRtvcCn_11vibeeye_app7browser10navigation12extract_html
FN:53,_RNvNtNtCs8KrzqRtvcCn_11vibeeye_app7browser10navigation12extract_text
FN:12,_RNvNtNtCs8KrzqRtvcCn_11vibeeye_app7browser10navigation13wait_for_load
FNDA:2,_RNvNtNtCskaWsK9vzoU7_11vibeeye_app7browser10navigation12extract_html
FNDA:0,_RNvNtNtCskaWsK9vzoU7_11vibeeye_app7browser10navigation12extract_text
FNDA:0,_RNvNtNtCskaWsK9vzoU7_11vibeeye_app7browser10navigation13wait_for_load
FNDA:2,_RNCNCNvNtNtCskaWsK9vzoU7_11vibeeye_app7browser10navigation12extract_html00B9_
FNDA:0,_RNCNCNvNtNtCskaWsK9vzoU7_11vibeeye_app7browser10navigation12extract_text00B9_
FNDA:2,_RNCNvNtNtCskaWsK9vzoU7_11vibeeye_app7browser10navigation12extract_html0B7_
FNDA:0,_RNCNvNtNtCskaWsK9vzoU7_11vibeeye_app7browser10navigation12extract_htmls_0B7_
FNDA:0,_RNCNvNtNtCskaWsK9vzoU7_11vibeeye_app7browser10navigation12extract_text0B7_
FNDA:0,_RNCNvNtNtCskaWsK9vzoU7_11vibeeye_app7browser10navigation12extract_texts_0B7_
FNDA:0,_RNCNCNvNtNtCs8KrzqRtvcCn_11vibeeye_app7browser10navigation12extract_html00B9_
FNDA:0,_RNCNCNvNtNtCs8KrzqRtvcCn_11vibeeye_app7browser10navigation12extract_text00B9_
FNDA:0,_RNCNvNtNtCs8KrzqRtvcCn_11vibeeye_app7browser10navigation12extract_html0B7_
FNDA:0,_RNCNvNtNtCs8KrzqRtvcCn_11vibeeye_app7browser10navigation12extract_htmls_0B7_
FNDA:0,_RNCNvNtNtCs8KrzqRtvcCn_11vibeeye_app7browser10navigation12extract_text0B7_
FNDA:0,_RNCNvNtNtCs8KrzqRtvcCn_11vibeeye_app7browser10navigation12extract_texts_0B7_
FNDA:0,_RNvNtNtCs8KrzqRtvcCn_11vibeeye_app7browser10navigation12extract_html
FNDA:0,_RNvNtNtCs8KrzqRtvcCn_11vibeeye_app7browser10navigation12extract_text
FNDA:0,_RNvNtNtCs8KrzqRtvcCn_11vibeeye_app7browser10navigation13wait_for_load
FNF:9
FNH:3
DA:12,0
DA:13,0
DA:14,0
DA:15,0
DA:16,0
DA:17,0
DA:18,0
DA:21,2
DA:22,2
DA:23,2
DA:24,2
DA:26,2
DA:27,2
DA:28,2
DA:29,2
DA:30,2
DA:31,0
DA:32,2
DA:33,2
DA:35,421
DA:36,419
DA:37,419
DA:38,419
DA:40,2
DA:41,2
DA:42,2
DA:43,2
DA:44,2
DA:45,2
DA:46,2
DA:48,2
DA:49,2
DA:50,2
DA:53,0
DA:54,0
DA:55,0
DA:56,0
DA:58,0
DA:59,0
DA:61,0
DA:62,0
DA:63,0
DA:64,0
DA:65,0
DA:66,0
DA:67,0
DA:70,0
DA:71,0
DA:72,0
DA:73,0
DA:75,0
DA:76,0
DA:77,0
DA:78,0
DA:79,0
DA:80,0
DA:81,0
DA:83,0
DA:84,0
DA:85,0
BRF:0
BRH:0
LF:65
LH:27
end_of_record
SF:/home/james/Projects/VibeEye/crates/vibeeye-app/src/config/crawl.rs
FN:97,_RNCNvMs_NtNtCskaWsK9vzoU7_11vibeeye_app6config5crawlNtB6_11CrawlConfig4load0Ba_
FN:109,_RNCNvMs_NtNtCskaWsK9vzoU7_11vibeeye_app6config5crawlNtB6_11CrawlConfig4loads0_0Ba_
FN:107,_RNCNvMs_NtNtCskaWsK9vzoU7_11vibeeye_app6config5crawlNtB6_11CrawlConfig4loads_0Ba_
FN:118,_RNCNvMs_NtNtCskaWsK9vzoU7_11vibeeye_app6config5crawlNtB6_11CrawlConfig7resolve0Ba_
FN:65,_RNvMNtNtCskaWsK9vzoU7_11vibeeye_app6config5crawlNtB2_12CrawlProfile5merge
FN:92,_RNvMs_NtNtCskaWsK9vzoU7_11vibeeye_app6config5crawlNtB4_11CrawlConfig4load
FN:116,_RNvMs_NtNtCskaWsK9vzoU7_11vibeeye_app6config5crawlNtB4_11CrawlConfig7resolve
FN:143,_RNvNtNtCskaWsK9vzoU7_11vibeeye_app6config5crawl12match_domain
FN:118,_RNCNvMs_NtNtCs8KrzqRtvcCn_11vibeeye_app6config5crawlNtB6_11CrawlConfig7resolve0Ba_
FN:158,_RNvNtNtNtCs8KrzqRtvcCn_11vibeeye_app6config5crawl5testss_17test_match_domain
FN:168,_RNvNtNtNtCs8KrzqRtvcCn_11vibeeye_app6config5crawl5testss_24test_crawl_profile_merge
FN:186,_RNvNtNtNtCs8KrzqRtvcCn_11vibeeye_app6config5crawl5testss_25test_crawl_config_resolve
FN:97,_RNCNvMs_NtNtCs8KrzqRtvcCn_11vibeeye_app6config5crawlNtB6_11CrawlConfig4load0Ba_
FN:109,_RNCNvMs_NtNtCs8KrzqRtvcCn_11vibeeye_app6config5crawlNtB6_11CrawlConfig4loads0_0Ba_
FN:107,_RNCNvMs_NtNtCs8KrzqRtvcCn_11vibeeye_app6config5crawlNtB6_11CrawlConfig4loads_0Ba_
FN:92,_RNvMs_NtNtCs8KrzqRtvcCn_11vibeeye_app6config5crawlNtB4_11CrawlConfig4load
FN:65,_RNvMNtNtCs8KrzqRtvcCn_11vibeeye_app6config5crawlNtB2_12CrawlProfile5merge
FN:116,_RNvMs_NtNtCs8KrzqRtvcCn_11vibeeye_app6config5crawlNtB4_11CrawlConfig7resolve
FN:143,_RNvNtNtCs8KrzqRtvcCn_11vibeeye_app6config5crawl12match_domain
FNDA:0,_RNCNvMs_NtNtCskaWsK9vzoU7_11vibeeye_app6config5crawlNtB6_11CrawlConfig4load0Ba_
FNDA:0,_RNCNvMs_NtNtCskaWsK9vzoU7_11vibeeye_app6config5crawlNtB6_11CrawlConfig4loads0_0Ba_
FNDA:0,_RNCNvMs_NtNtCskaWsK9vzoU7_11vibeeye_app6config5crawlNtB6_11CrawlConfig4loads_0Ba_
FNDA:0,_RNCNvMs_NtNtCskaWsK9vzoU7_11vibeeye_app6config5crawlNtB6_11CrawlConfig7resolve0Ba_
FNDA:0,_RNvMNtNtCskaWsK9vzoU7_11vibeeye_app6config5crawlNtB2_12CrawlProfile5merge
FNDA:0,_RNvMs_NtNtCskaWsK9vzoU7_11vibeeye_app6config5crawlNtB4_11CrawlConfig4load
FNDA:0,_RNvMs_NtNtCskaWsK9vzoU7_11vibeeye_app6config5crawlNtB4_11CrawlConfig7resolve
FNDA:0,_RNvNtNtCskaWsK9vzoU7_11vibeeye_app6config5crawl12match_domain
FNDA:0,_RNCNvMs_NtNtCs8KrzqRtvcCn_11vibeeye_app6config5crawlNtB6_11CrawlConfig7resolve0Ba_
FNDA:1,_RNvNtNtNtCs8KrzqRtvcCn_11vibeeye_app6config5crawl5testss_17test_match_domain
FNDA:1,_RNvNtNtNtCs8KrzqRtvcCn_11vibeeye_app6config5crawl5testss_24test_crawl_profile_merge
FNDA:1,_RNvNtNtNtCs8KrzqRtvcCn_11vibeeye_app6config5crawl5testss_25test_crawl_config_resolve
FNDA:0,_RNCNvMs_NtNtCs8KrzqRtvcCn_11vibeeye_app6config5crawlNtB6_11CrawlConfig4load0Ba_
FNDA:0,_RNCNvMs_NtNtCs8KrzqRtvcCn_11vibeeye_app6config5crawlNtB6_11CrawlConfig4loads0_0Ba_
FNDA:0,_RNCNvMs_NtNtCs8KrzqRtvcCn_11vibeeye_app6config5crawlNtB6_11CrawlConfig4loads_0Ba_
FNDA:0,_RNvMs_NtNtCs8KrzqRtvcCn_11vibeeye_app6config5crawlNtB4_11CrawlConfig4load
FNDA:4,_RNvMNtNtCs8KrzqRtvcCn_11vibeeye_app6config5crawlNtB2_12CrawlProfile5merge
FNDA:3,_RNvMs_NtNtCs8KrzqRtvcCn_11vibeeye_app6config5crawlNtB4_11CrawlConfig7resolve
FNDA:9,_RNvNtNtCs8KrzqRtvcCn_11vibeeye_app6config5crawl12match_domain
FNF:11
FNH:6
DA:65,4
DA:66,4
DA:67,4
DA:68,4
DA:69,4
DA:70,4
DA:71,4
DA:72,4
DA:73,4
DA:74,4
DA:75,4
DA:76,4
DA:92,0
DA:93,0
DA:94,0
DA:96,0
DA:97,0
DA:98,0
DA:102,0
DA:103,0
DA:104,0
DA:106,0
DA:107,0
DA:108,0
DA:109,0
DA:110,0
DA:111,0
DA:116,3
DA:117,3
DA:118,3
DA:119,3
DA:121,3
DA:124,3
DA:125,3
DA:126,2
DA:127,2
DA:131,3
DA:132,1
DA:133,2
DA:135,3
DA:136,3
DA:143,9
DA:144,9
DA:145,2
DA:146,7
DA:147,7
DA:148,0
DA:149,7
DA:150,7
DA:151,9
DA:158,1
DA:159,1
DA:160,1
DA:161,1
DA:162,1
DA:163,1
DA:164,1
DA:165,1
DA:168,1
DA:169,1
DA:170,1
DA:171,1
DA:172,1
DA:173,1
DA:174,1
DA:175,1
DA:176,1
DA:177,1
DA:178,1
DA:179,1
DA:180,1
DA:181,1
DA:182,1
DA:183,1
DA:186,1
DA:187,1
DA:188,1
DA:189,1
DA:191,1
DA:192,1
DA:193,1
DA:194,1
DA:195,1
DA:196,1
DA:199,1
DA:200,1
DA:201,1
DA:202,1
DA:203,1
DA:204,1
DA:205,1
DA:208,1
DA:209,1
DA:210,1
DA:212,1
DA:213,1
DA:214,1
DA:216,1
DA:217,1
DA:218,1
DA:219,1
BRF:0
BRH:0
LF:105
LH:85
end_of_record
SF:/home/james/Projects/VibeEye/crates/vibeeye-app/src/crawl/links.rs
FN:27,_RNvNtNtCskaWsK9vzoU7_11vibeeye_app5crawl5links12resolve_link
FN:8,_RNvNtNtCskaWsK9vzoU7_11vibeeye_app5crawl5links13extract_links
FN:60,_RNvNtNtCskaWsK9vzoU7_11vibeeye_app5crawl5links13normalize_url
FN:51,_RNvNtNtCskaWsK9vzoU7_11vibeeye_app5crawl5links14is_http_scheme
FN:84,_RNvNtNtCskaWsK9vzoU7_11vibeeye_app5crawl5links14is_same_origin
FN:40,_RNvNtNtCskaWsK9vzoU7_11vibeeye_app5crawl5links16is_non_navigable
FN:78,_RNCNvNtNtCskaWsK9vzoU7_11vibeeye_app5crawl5links13normalize_url0B7_
FN:132,_RNvNtNtNtCs8KrzqRtvcCn_11vibeeye_app5crawl5links5testss_19test_is_same_origin
FN:141,_RNvNtNtNtCs8KrzqRtvcCn_11vibeeye_app5crawl5links5testss_24test_extract_links_basic
FN:124,_RNvNtNtNtCs8KrzqRtvcCn_11vibeeye_app5crawl5links5testss_30test_normalize_url_keeps_query
FN:116,_RNvNtNtNtCs8KrzqRtvcCn_11vibeeye_app5crawl5links5testss_34test_normalize_url_lowercases_host
FN:100,_RNvNtNtNtCs8KrzqRtvcCn_11vibeeye_app5crawl5links5testss_34test_normalize_url_strips_fragment
FN:108,_RNvNtNtNtCs8KrzqRtvcCn_11vibeeye_app5crawl5links5testss_36test_normalize_url_collapses_slashes
FN:27,_RNvNtNtCs8KrzqRtvcCn_11vibeeye_app5crawl5links12resolve_link
FN:8,_RNvNtNtCs8KrzqRtvcCn_11vibeeye_app5crawl5links13extract_links
FN:60,_RNvNtNtCs8KrzqRtvcCn_11vibeeye_app5crawl5links13normalize_url
FN:51,_RNvNtNtCs8KrzqRtvcCn_11vibeeye_app5crawl5links14is_http_scheme
FN:84,_RNvNtNtCs8KrzqRtvcCn_11vibeeye_app5crawl5links14is_same_origin
FN:40,_RNvNtNtCs8KrzqRtvcCn_11vibeeye_app5crawl5links16is_non_navigable
FN:78,_RNCNvNtNtCs8KrzqRtvcCn_11vibeeye_app5crawl5links13normalize_url0B7_
FNDA:2,_RNvNtNtCskaWsK9vzoU7_11vibeeye_app5crawl5links12resolve_link
FNDA:10,_RNvNtNtCskaWsK9vzoU7_11vibeeye_app5crawl5links13extract_links
FNDA:7,_RNvNtNtCskaWsK9vzoU7_11vibeeye_app5crawl5links13normalize_url
FNDA:2,_RNvNtNtCskaWsK9vzoU7_11vibeeye_app5crawl5links14is_http_scheme
FNDA:1,_RNvNtNtCskaWsK9vzoU7_11vibeeye_app5crawl5links14is_same_origin
FNDA:2,_RNvNtNtCskaWsK9vzoU7_11vibeeye_app5crawl5links16is_non_navigable
FNDA:0,_RNCNvNtNtCskaWsK9vzoU7_11vibeeye_app5crawl5links13normalize_url0B7_
FNDA:1,_RNvNtNtNtCs8KrzqRtvcCn_11vibeeye_app5crawl5links5testss_19test_is_same_origin
FNDA:1,_RNvNtNtNtCs8KrzqRtvcCn_11vibeeye_app5crawl5links5testss_24test_extract_links_basic
FNDA:1,_RNvNtNtNtCs8KrzqRtvcCn_11vibeeye_app5crawl5links5testss_30test_normalize_url_keeps_query
FNDA:1,_RNvNtNtNtCs8KrzqRtvcCn_11vibeeye_app5crawl5links5testss_34test_normalize_url_lowercases_host
FNDA:1,_RNvNtNtNtCs8KrzqRtvcCn_11vibeeye_app5crawl5links5testss_34test_normalize_url_strips_fragment
FNDA:1,_RNvNtNtNtCs8KrzqRtvcCn_11vibeeye_app5crawl5links5testss_36test_normalize_url_collapses_slashes
FNDA:12,_RNvNtNtCs8KrzqRtvcCn_11vibeeye_app5crawl5links12resolve_link
FNDA:5,_RNvNtNtCs8KrzqRtvcCn_11vibeeye_app5crawl5links13extract_links
FNDA:19,_RNvNtNtCs8KrzqRtvcCn_11vibeeye_app5crawl5links13normalize_url
FNDA:9,_RNvNtNtCs8KrzqRtvcCn_11vibeeye_app5crawl5links14is_http_scheme
FNDA:9,_RNvNtNtCs8KrzqRtvcCn_11vibeeye_app5crawl5links14is_same_origin
FNDA:12,_RNvNtNtCs8KrzqRtvcCn_11vibeeye_app5crawl5links16is_non_navigable
FNDA:1,_RNCNvNtNtCs8KrzqRtvcCn_11vibeeye_app5crawl5links13normalize_url0B7_
FNF:13
FNH:13
DA:8,15
DA:9,15
DA:10,15
DA:12,15
DA:13,15
DA:14,14
DA:15,14
DA:16,11
DA:17,11
DA:18,0
DA:20,15
DA:21,15
DA:27,14
DA:28,14
DA:29,3
DA:30,11
DA:32,11
DA:33,11
DA:34,0
DA:35,11
DA:37,11
DA:38,14
DA:40,14
DA:41,14
DA:42,1
DA:43,13
DA:44,13
DA:45,13
DA:46,12
DA:47,11
DA:48,11
DA:49,14
DA:51,11
DA:52,11
DA:53,11
DA:60,26
DA:61,26
DA:63,26
DA:64,26
DA:66,26
DA:67,26
DA:68,0
DA:69,26
DA:70,0
DA:71,0
DA:74,26
DA:75,26
DA:77,26
DA:78,26
DA:80,26
DA:81,26
DA:84,10
DA:85,10
DA:86,10
DA:87,10
DA:89,10
DA:90,10
DA:92,10
DA:93,10
DA:100,1
DA:101,1
DA:102,1
DA:105,1
DA:108,1
DA:109,1
DA:110,1
DA:113,1
DA:116,1
DA:117,1
DA:118,1
DA:121,1
DA:124,1
DA:125,1
DA:126,1
DA:129,1
DA:132,1
DA:133,1
DA:134,1
DA:135,1
DA:136,1
DA:137,1
DA:138,1
DA:141,1
DA:142,1
DA:143,1
DA:144,1
DA:145,1
DA:146,1
DA:147,1
DA:148,1
DA:149,1
DA:150,1
DA:151,1
DA:153,1
DA:154,1
DA:156,1
DA:157,1
DA:158,1
BRF:0
BRH:0
LF:99
LH:94
end_of_record
SF:/home/james/Projects/VibeEye/crates/vibeeye-app/src/crawl/mod.rs
FN:120,_RNvNtCskaWsK9vzoU7_11vibeeye_app5crawl11build_queue
FN:311,_RNvNtCskaWsK9vzoU7_11vibeeye_app5crawl11format_name
FN:146,_RNvNtCskaWsK9vzoU7_11vibeeye_app5crawl11load_robots
FN:327,_RNvNtCskaWsK9vzoU7_11vibeeye_app5crawl12emit_results
FN:227,_RNvNtCskaWsK9vzoU7_11vibeeye_app5crawl12error_result
FN:161,_RNvNtCskaWsK9vzoU7_11vibeeye_app5crawl13robots_blocks
FN:170,_RNvNtCskaWsK9vzoU7_11vibeeye_app5crawl14acquire_permit
FN:262,_RNvNtCskaWsK9vzoU7_11vibeeye_app5crawl14crawl_one_page
FN:319,_RNvNtCskaWsK9vzoU7_11vibeeye_app5crawl14file_extension
FN:372,_RNvNtCskaWsK9vzoU7_11vibeeye_app5crawl14write_manifest
FN:180,_RNvNtCskaWsK9vzoU7_11vibeeye_app5crawl16apply_rate_limit
FN:280,_RNvNtCskaWsK9vzoU7_11vibeeye_app5crawl17extract_and_build
FN:154,_RNvNtCskaWsK9vzoU7_11vibeeye_app5crawl17should_crawl_page
FN:239,_RNvNtCskaWsK9vzoU7_11vibeeye_app5crawl18enqueue_discovered
FN:197,_RNvNtCskaWsK9vzoU7_11vibeeye_app5crawl18fetch_with_session
FN:338,_RNvNtCskaWsK9vzoU7_11vibeeye_app5crawl18write_to_directory
FN:361,_RNvNtCskaWsK9vzoU7_11vibeeye_app5crawl20build_manifest_entry
FN:63,_RNvNtCskaWsK9vzoU7_11vibeeye_app5crawl3run
FN:208,_RNCNCNCNvNtCskaWsK9vzoU7_11vibeeye_app5crawl18fetch_with_session000B9_
FN:212,_RNCNCNCNvNtCskaWsK9vzoU7_11vibeeye_app5crawl18fetch_with_session00s_0B9_
FN:375,_RNCNCNvNtCskaWsK9vzoU7_11vibeeye_app5crawl14write_manifest00B7_
FN:378,_RNCNCNvNtCskaWsK9vzoU7_11vibeeye_app5crawl14write_manifest0s_0B7_
FN:204,_RNCNCNvNtCskaWsK9vzoU7_11vibeeye_app5crawl18fetch_with_session00B7_
FN:343,_RNCNCNvNtCskaWsK9vzoU7_11vibeeye_app5crawl18write_to_directory00B7_
FN:354,_RNCNCNvNtCskaWsK9vzoU7_11vibeeye_app5crawl18write_to_directory0s_0B7_
FN:65,_RNCNCNvNtCskaWsK9vzoU7_11vibeeye_app5crawl3run00B7_
FN:112,_RNCNCNvNtCskaWsK9vzoU7_11vibeeye_app5crawl3run0s2_0B7_
FN:113,_RNCNCNvNtCskaWsK9vzoU7_11vibeeye_app5crawl3run0s3_0B7_
FN:112,_RNCNCNvNtCskaWsK9vzoU7_11vibeeye_app5crawl3run0s4_0B7_
FN:113,_RNCNCNvNtCskaWsK9vzoU7_11vibeeye_app5crawl3run0s5_0B7_
FN:80,_RNCNCNvNtCskaWsK9vzoU7_11vibeeye_app5crawl3run0s_0B7_
FN:123,_RNCNvNtCskaWsK9vzoU7_11vibeeye_app5crawl11build_queue0B5_
FN:146,_RNCNvNtCskaWsK9vzoU7_11vibeeye_app5crawl11load_robots0B5_
FN:327,_RNCNvNtCskaWsK9vzoU7_11vibeeye_app5crawl12emit_results0B5_
FN:170,_RNCNvNtCskaWsK9vzoU7_11vibeeye_app5crawl14acquire_permit0B5_
FN:270,_RNCNvNtCskaWsK9vzoU7_11vibeeye_app5crawl14crawl_one_page0B5_
FN:372,_RNCNvNtCskaWsK9vzoU7_11vibeeye_app5crawl14write_manifest0B5_
FN:184,_RNCNvNtCskaWsK9vzoU7_11vibeeye_app5crawl16apply_rate_limit0B5_
FN:287,_RNCNvNtCskaWsK9vzoU7_11vibeeye_app5crawl17extract_and_build0B5_
FN:201,_RNCNvNtCskaWsK9vzoU7_11vibeeye_app5crawl18fetch_with_session0B5_
FN:342,_RNCNvNtCskaWsK9vzoU7_11vibeeye_app5crawl18write_to_directory0B5_
FN:63,_RNCNvNtCskaWsK9vzoU7_11vibeeye_app5crawl3run0B5_
FN:63,_RNvNtCs8KrzqRtvcCn_11vibeeye_app5crawl3run
FN:642,_RNCNvNtNtCs8KrzqRtvcCn_11vibeeye_app5crawl5testss_32test_build_queue_without_sitemap0B7_
FN:473,_RNCNvNtNtCs8KrzqRtvcCn_11vibeeye_app5crawl5testss_34test_enqueue_discovered_adds_links0B7_
FN:582,_RNCNvNtNtCs8KrzqRtvcCn_11vibeeye_app5crawl5testss_37test_write_to_directory_creates_files0B7_
FN:120,_RNvNtCs8KrzqRtvcCn_11vibeeye_app5crawl11build_queue
FN:311,_RNvNtCs8KrzqRtvcCn_11vibeeye_app5crawl11format_name
FN:146,_RNvNtCs8KrzqRtvcCn_11vibeeye_app5crawl11load_robots
FN:327,_RNvNtCs8KrzqRtvcCn_11vibeeye_app5crawl12emit_results
FN:227,_RNvNtCs8KrzqRtvcCn_11vibeeye_app5crawl12error_result
FN:161,_RNvNtCs8KrzqRtvcCn_11vibeeye_app5crawl13robots_blocks
FN:170,_RNvNtCs8KrzqRtvcCn_11vibeeye_app5crawl14acquire_permit
FN:262,_RNvNtCs8KrzqRtvcCn_11vibeeye_app5crawl14crawl_one_page
FN:319,_RNvNtCs8KrzqRtvcCn_11vibeeye_app5crawl14file_extension
FN:372,_RNvNtCs8KrzqRtvcCn_11vibeeye_app5crawl14write_manifest
FN:180,_RNvNtCs8KrzqRtvcCn_11vibeeye_app5crawl16apply_rate_limit
FN:280,_RNvNtCs8KrzqRtvcCn_11vibeeye_app5crawl17extract_and_build
FN:154,_RNvNtCs8KrzqRtvcCn_11vibeeye_app5crawl17should_crawl_page
FN:239,_RNvNtCs8KrzqRtvcCn_11vibeeye_app5crawl18enqueue_discovered
FN:197,_RNvNtCs8KrzqRtvcCn_11vibeeye_app5crawl18fetch_with_session
FN:338,_RNvNtCs8KrzqRtvcCn_11vibeeye_app5crawl18write_to_directory
FN:361,_RNvNtCs8KrzqRtvcCn_11vibeeye_app5crawl20build_manifest_entry
FN:388,_RNvNtNtCs8KrzqRtvcCn_11vibeeye_app5crawl5testss_16test_format_name
FN:395,_RNvNtNtCs8KrzqRtvcCn_11vibeeye_app5crawl5testss_19test_file_extension
FN:570,_RNvNtNtCs8KrzqRtvcCn_11vibeeye_app5crawl5testss_24test_error_result_format
FN:651,_RNvNtNtCs8KrzqRtvcCn_11vibeeye_app5crawl5testss_30test_extract_and_build_success
FN:626,_RNvNtNtCs8KrzqRtvcCn_11vibeeye_app5crawl5testss_32test_build_queue_without_sitemap
FN:443,_RNvNtNtCs8KrzqRtvcCn_11vibeeye_app5crawl5testss_34test_enqueue_discovered_adds_links
FN:402,_RNvNtNtCs8KrzqRtvcCn_11vibeeye_app5crawl5testss_34test_should_crawl_page_depth_limit
FN:538,_RNvNtNtCs8KrzqRtvcCn_11vibeeye_app5crawl5testss_36test_enqueue_discovered_deduplicates
FN:582,_RNvNtNtCs8KrzqRtvcCn_11vibeeye_app5crawl5testss_37test_write_to_directory_creates_files
FN:423,_RNvNtNtCs8KrzqRtvcCn_11vibeeye_app5crawl5testss_38test_should_crawl_page_respects_robots
FN:512,_RNvNtNtCs8KrzqRtvcCn_11vibeeye_app5crawl5testss_42test_enqueue_discovered_respects_max_depth
FN:481,_RNvNtNtCs8KrzqRtvcCn_11vibeeye_app5crawl5testss_62test_enqueue_discovered_allows_external_when_same_origin_false
FN:208,_RNCNCNCNvNtCs8KrzqRtvcCn_11vibeeye_app5crawl18fetch_with_session000B9_
FN:212,_RNCNCNCNvNtCs8KrzqRtvcCn_11vibeeye_app5crawl18fetch_with_session00s_0B9_
FN:375,_RNCNCNvNtCs8KrzqRtvcCn_11vibeeye_app5crawl14write_manifest00B7_
FN:378,_RNCNCNvNtCs8KrzqRtvcCn_11vibeeye_app5crawl14write_manifest0s_0B7_
FN:204,_RNCNCNvNtCs8KrzqRtvcCn_11vibeeye_app5crawl18fetch_with_session00B7_
FN:343,_RNCNCNvNtCs8KrzqRtvcCn_11vibeeye_app5crawl18write_to_directory00B7_
FN:354,_RNCNCNvNtCs8KrzqRtvcCn_11vibeeye_app5crawl18write_to_directory0s_0B7_
FN:65,_RNCNCNvNtCs8KrzqRtvcCn_11vibeeye_app5crawl3run00B7_
FN:112,_RNCNCNvNtCs8KrzqRtvcCn_11vibeeye_app5crawl3run0s2_0B7_
FN:113,_RNCNCNvNtCs8KrzqRtvcCn_11vibeeye_app5crawl3run0s3_0B7_
FN:112,_RNCNCNvNtCs8KrzqRtvcCn_11vibeeye_app5crawl3run0s4_0B7_
FN:113,_RNCNCNvNtCs8KrzqRtvcCn_11vibeeye_app5crawl3run0s5_0B7_
FN:80,_RNCNCNvNtCs8KrzqRtvcCn_11vibeeye_app5crawl3run0s_0B7_
FN:123,_RNCNvNtCs8KrzqRtvcCn_11vibeeye_app5crawl11build_queue0B5_
FN:146,_RNCNvNtCs8KrzqRtvcCn_11vibeeye_app5crawl11load_robots0B5_
FN:327,_RNCNvNtCs8KrzqRtvcCn_11vibeeye_app5crawl12emit_results0B5_
FN:170,_RNCNvNtCs8KrzqRtvcCn_11vibeeye_app5crawl14acquire_permit0B5_
FN:270,_RNCNvNtCs8KrzqRtvcCn_11vibeeye_app5crawl14crawl_one_page0B5_
FN:372,_RNCNvNtCs8KrzqRtvcCn_11vibeeye_app5crawl14write_manifest0B5_
FN:184,_RNCNvNtCs8KrzqRtvcCn_11vibeeye_app5crawl16apply_rate_limit0B5_
FN:287,_RNCNvNtCs8KrzqRtvcCn_11vibeeye_app5crawl17extract_and_build0B5_
FN:201,_RNCNvNtCs8KrzqRtvcCn_11vibeeye_app5crawl18fetch_with_session0B5_
FN:342,_RNCNvNtCs8KrzqRtvcCn_11vibeeye_app5crawl18write_to_directory0B5_
FN:63,_RNCNvNtCs8KrzqRtvcCn_11vibeeye_app5crawl3run0B5_
FNDA:5,_RNvNtCskaWsK9vzoU7_11vibeeye_app5crawl11build_queue
FNDA:5,_RNvNtCskaWsK9vzoU7_11vibeeye_app5crawl11format_name
FNDA:5,_RNvNtCskaWsK9vzoU7_11vibeeye_app5crawl11load_robots
FNDA:5,_RNvNtCskaWsK9vzoU7_11vibeeye_app5crawl12emit_results
FNDA:0,_RNvNtCskaWsK9vzoU7_11vibeeye_app5crawl12error_result
FNDA:5,_RNvNtCskaWsK9vzoU7_11vibeeye_app5crawl13robots_blocks
FNDA:5,_RNvNtCskaWsK9vzoU7_11vibeeye_app5crawl14acquire_permit
FNDA:5,_RNvNtCskaWsK9vzoU7_11vibeeye_app5crawl14crawl_one_page
FNDA:4,_RNvNtCskaWsK9vzoU7_11vibeeye_app5crawl14file_extension
FNDA:4,_RNvNtCskaWsK9vzoU7_11vibeeye_app5crawl14write_manifest
FNDA:5,_RNvNtCskaWsK9vzoU7_11vibeeye_app5crawl16apply_rate_limit
FNDA:5,_RNvNtCskaWsK9vzoU7_11vibeeye_app5crawl17extract_and_build
FNDA:5,_RNvNtCskaWsK9vzoU7_11vibeeye_app5crawl17should_crawl_page
FNDA:5,_RNvNtCskaWsK9vzoU7_11vibeeye_app5crawl18enqueue_discovered
FNDA:5,_RNvNtCskaWsK9vzoU7_11vibeeye_app5crawl18fetch_with_session
FNDA:4,_RNvNtCskaWsK9vzoU7_11vibeeye_app5crawl18write_to_directory
FNDA:4,_RNvNtCskaWsK9vzoU7_11vibeeye_app5crawl20build_manifest_entry
FNDA:5,_RNvNtCskaWsK9vzoU7_11vibeeye_app5crawl3run
FNDA:0,_RNCNCNCNvNtCskaWsK9vzoU7_11vibeeye_app5crawl18fetch_with_session000B9_
FNDA:0,_RNCNCNCNvNtCskaWsK9vzoU7_11vibeeye_app5crawl18fetch_with_session00s_0B9_
FNDA:0,_RNCNCNvNtCskaWsK9vzoU7_11vibeeye_app5crawl14write_manifest00B7_
FNDA:0,_RNCNCNvNtCskaWsK9vzoU7_11vibeeye_app5crawl14write_manifest0s_0B7_
FNDA:5,_RNCNCNvNtCskaWsK9vzoU7_11vibeeye_app5crawl18fetch_with_session00B7_
FNDA:0,_RNCNCNvNtCskaWsK9vzoU7_11vibeeye_app5crawl18write_to_directory00B7_
FNDA:0,_RNCNCNvNtCskaWsK9vzoU7_11vibeeye_app5crawl18write_to_directory0s_0B7_
FNDA:0,_RNCNCNvNtCskaWsK9vzoU7_11vibeeye_app5crawl3run00B7_
FNDA:0,_RNCNCNvNtCskaWsK9vzoU7_11vibeeye_app5crawl3run0s2_0B7_
FNDA:0,_RNCNCNvNtCskaWsK9vzoU7_11vibeeye_app5crawl3run0s3_0B7_
FNDA:0,_RNCNCNvNtCskaWsK9vzoU7_11vibeeye_app5crawl3run0s4_0B7_
FNDA:0,_RNCNCNvNtCskaWsK9vzoU7_11vibeeye_app5crawl3run0s5_0B7_
FNDA:0,_RNCNCNvNtCskaWsK9vzoU7_11vibeeye_app5crawl3run0s_0B7_
FNDA:5,_RNCNvNtCskaWsK9vzoU7_11vibeeye_app5crawl11build_queue0B5_
FNDA:5,_RNCNvNtCskaWsK9vzoU7_11vibeeye_app5crawl11load_robots0B5_
FNDA:5,_RNCNvNtCskaWsK9vzoU7_11vibeeye_app5crawl12emit_results0B5_
FNDA:5,_RNCNvNtCskaWsK9vzoU7_11vibeeye_app5crawl14acquire_permit0B5_
FNDA:5,_RNCNvNtCskaWsK9vzoU7_11vibeeye_app5crawl14crawl_one_page0B5_
FNDA:4,_RNCNvNtCskaWsK9vzoU7_11vibeeye_app5crawl14write_manifest0B5_
FNDA:5,_RNCNvNtCskaWsK9vzoU7_11vibeeye_app5crawl16apply_rate_limit0B5_
FNDA:0,_RNCNvNtCskaWsK9vzoU7_11vibeeye_app5crawl17extract_and_build0B5_
FNDA:5,_RNCNvNtCskaWsK9vzoU7_11vibeeye_app5crawl18fetch_with_session0B5_
FNDA:4,_RNCNvNtCskaWsK9vzoU7_11vibeeye_app5crawl18write_to_directory0B5_
FNDA:5,_RNCNvNtCskaWsK9vzoU7_11vibeeye_app5crawl3run0B5_
FNDA:0,_RNvNtCs8KrzqRtvcCn_11vibeeye_app5crawl3run
FNDA:1,_RNCNvNtNtCs8KrzqRtvcCn_11vibeeye_app5crawl5testss_32test_build_queue_without_sitemap0B7_
FNDA:2,_RNCNvNtNtCs8KrzqRtvcCn_11vibeeye_app5crawl5testss_34test_enqueue_discovered_adds_links0B7_
FNDA:1,_RNCNvNtNtCs8KrzqRtvcCn_11vibeeye_app5crawl5testss_37test_write_to_directory_creates_files0B7_
FNDA:1,_RNvNtCs8KrzqRtvcCn_11vibeeye_app5crawl11build_queue
FNDA:5,_RNvNtCs8KrzqRtvcCn_11vibeeye_app5crawl11format_name
FNDA:0,_RNvNtCs8KrzqRtvcCn_11vibeeye_app5crawl11load_robots
FNDA:0,_RNvNtCs8KrzqRtvcCn_11vibeeye_app5crawl12emit_results
FNDA:1,_RNvNtCs8KrzqRtvcCn_11vibeeye_app5crawl12error_result
FNDA:4,_RNvNtCs8KrzqRtvcCn_11vibeeye_app5crawl13robots_blocks
FNDA:0,_RNvNtCs8KrzqRtvcCn_11vibeeye_app5crawl14acquire_permit
FNDA:0,_RNvNtCs8KrzqRtvcCn_11vibeeye_app5crawl14crawl_one_page
FNDA:3,_RNvNtCs8KrzqRtvcCn_11vibeeye_app5crawl14file_extension
FNDA:1,_RNvNtCs8KrzqRtvcCn_11vibeeye_app5crawl14write_manifest
FNDA:0,_RNvNtCs8KrzqRtvcCn_11vibeeye_app5crawl16apply_rate_limit
FNDA:1,_RNvNtCs8KrzqRtvcCn_11vibeeye_app5crawl17extract_and_build
FNDA:5,_RNvNtCs8KrzqRtvcCn_11vibeeye_app5crawl17should_crawl_page
FNDA:4,_RNvNtCs8KrzqRtvcCn_11vibeeye_app5crawl18enqueue_discovered
FNDA:0,_RNvNtCs8KrzqRtvcCn_11vibeeye_app5crawl18fetch_with_session
FNDA:1,_RNvNtCs8KrzqRtvcCn_11vibeeye_app5crawl18write_to_directory
FNDA:2,_RNvNtCs8KrzqRtvcCn_11vibeeye_app5crawl20build_manifest_entry
FNDA:1,_RNvNtNtCs8KrzqRtvcCn_11vibeeye_app5crawl5testss_16test_format_name
FNDA:1,_RNvNtNtCs8KrzqRtvcCn_11vibeeye_app5crawl5testss_19test_file_extension
FNDA:1,_RNvNtNtCs8KrzqRtvcCn_11vibeeye_app5crawl5testss_24test_error_result_format
FNDA:1,_RNvNtNtCs8KrzqRtvcCn_11vibeeye_app5crawl5testss_30test_extract_and_build_success
FNDA:1,_RNvNtNtCs8KrzqRtvcCn_11vibeeye_app5crawl5testss_32test_build_queue_without_sitemap
FNDA:1,_RNvNtNtCs8KrzqRtvcCn_11vibeeye_app5crawl5testss_34test_enqueue_discovered_adds_links
FNDA:1,_RNvNtNtCs8KrzqRtvcCn_11vibeeye_app5crawl5testss_34test_should_crawl_page_depth_limit
FNDA:1,_RNvNtNtCs8KrzqRtvcCn_11vibeeye_app5crawl5testss_36test_enqueue_discovered_deduplicates
FNDA:1,_RNvNtNtCs8KrzqRtvcCn_11vibeeye_app5crawl5testss_37test_write_to_directory_creates_files
FNDA:1,_RNvNtNtCs8KrzqRtvcCn_11vibeeye_app5crawl5testss_38test_should_crawl_page_respects_robots
FNDA:1,_RNvNtNtCs8KrzqRtvcCn_11vibeeye_app5crawl5testss_42test_enqueue_discovered_respects_max_depth
FNDA:1,_RNvNtNtCs8KrzqRtvcCn_11vibeeye_app5crawl5testss_62test_enqueue_discovered_allows_external_when_same_origin_false
FNDA:0,_RNCNCNCNvNtCs8KrzqRtvcCn_11vibeeye_app5crawl18fetch_with_session000B9_
FNDA:0,_RNCNCNCNvNtCs8KrzqRtvcCn_11vibeeye_app5crawl18fetch_with_session00s_0B9_
FNDA:0,_RNCNCNvNtCs8KrzqRtvcCn_11vibeeye_app5crawl14write_manifest00B7_
FNDA:0,_RNCNCNvNtCs8KrzqRtvcCn_11vibeeye_app5crawl14write_manifest0s_0B7_
FNDA:0,_RNCNCNvNtCs8KrzqRtvcCn_11vibeeye_app5crawl18fetch_with_session00B7_
FNDA:0,_RNCNCNvNtCs8KrzqRtvcCn_11vibeeye_app5crawl18write_to_directory00B7_
FNDA:0,_RNCNCNvNtCs8KrzqRtvcCn_11vibeeye_app5crawl18write_to_directory0s_0B7_
FNDA:0,_RNCNCNvNtCs8KrzqRtvcCn_11vibeeye_app5crawl3run00B7_
FNDA:0,_RNCNCNvNtCs8KrzqRtvcCn_11vibeeye_app5crawl3run0s2_0B7_
FNDA:0,_RNCNCNvNtCs8KrzqRtvcCn_11vibeeye_app5crawl3run0s3_0B7_
FNDA:0,_RNCNCNvNtCs8KrzqRtvcCn_11vibeeye_app5crawl3run0s4_0B7_
FNDA:0,_RNCNCNvNtCs8KrzqRtvcCn_11vibeeye_app5crawl3run0s5_0B7_
FNDA:0,_RNCNCNvNtCs8KrzqRtvcCn_11vibeeye_app5crawl3run0s_0B7_
FNDA:1,_RNCNvNtCs8KrzqRtvcCn_11vibeeye_app5crawl11build_queue0B5_
FNDA:0,_RNCNvNtCs8KrzqRtvcCn_11vibeeye_app5crawl11load_robots0B5_
FNDA:0,_RNCNvNtCs8KrzqRtvcCn_11vibeeye_app5crawl12emit_results0B5_
FNDA:0,_RNCNvNtCs8KrzqRtvcCn_11vibeeye_app5crawl14acquire_permit0B5_
FNDA:0,_RNCNvNtCs8KrzqRtvcCn_11vibeeye_app5crawl14crawl_one_page0B5_
FNDA:1,_RNCNvNtCs8KrzqRtvcCn_11vibeeye_app5crawl14write_manifest0B5_
FNDA:0,_RNCNvNtCs8KrzqRtvcCn_11vibeeye_app5crawl16apply_rate_limit0B5_
FNDA:0,_RNCNvNtCs8KrzqRtvcCn_11vibeeye_app5crawl17extract_and_build0B5_
FNDA:0,_RNCNvNtCs8KrzqRtvcCn_11vibeeye_app5crawl18fetch_with_session0B5_
FNDA:1,_RNCNvNtCs8KrzqRtvcCn_11vibeeye_app5crawl18write_to_directory0B5_
FNDA:0,_RNCNvNtCs8KrzqRtvcCn_11vibeeye_app5crawl3run0B5_
FNF:55
FNH:44
DA:63,5
DA:64,5
DA:65,5
DA:67,5
DA:69,5
DA:70,5
DA:73,5
DA:74,5
DA:75,5
DA:76,5
DA:77,5
DA:79,5
DA:80,5
DA:82,10
DA:83,5
DA:84,0
DA:85,5
DA:86,5
DA:87,0
DA:88,5
DA:90,5
DA:91,5
DA:93,5
DA:94,5
DA:95,5
DA:96,5
DA:97,5
DA:100,0
DA:101,0
DA:106,5
DA:108,5
DA:110,5
DA:111,0
DA:112,0
DA:113,0
DA:117,5
DA:118,5
DA:120,6
DA:121,6
DA:122,6
DA:123,6
DA:124,6
DA:125,6
DA:127,6
DA:128,0
DA:129,0
DA:130,0
DA:131,0
DA:132,0
DA:133,0
DA:135,6
DA:137,6
DA:138,6
DA:139,6
DA:140,6
DA:141,6
DA:143,6
DA:144,6
DA:146,5
DA:147,5
DA:148,0
DA:150,5
DA:152,5
DA:154,10
DA:155,10
DA:156,1
DA:157,9
DA:158,9
DA:159,10
DA:161,9
DA:162,9
DA:163,9
DA:164,9
DA:165,1
DA:166,8
DA:167,9
DA:168,9
DA:170,5
DA:171,5
DA:172,5
DA:174,0
DA:175,0
DA:178,5
DA:180,5
DA:181,5
DA:182,5
DA:183,5
DA:184,5
DA:185,5
DA:186,5
DA:187,5
DA:188,5
DA:189,0
DA:190,0
DA:191,0
DA:192,0
DA:193,5
DA:194,5
DA:195,5
DA:197,5
DA:198,5
DA:199,5
DA:200,5
DA:201,5
DA:202,5
DA:203,5
DA:204,5
DA:205,5
DA:206,5
DA:207,5
DA:208,5
DA:209,5
DA:210,5
DA:211,5
DA:212,5
DA:213,5
DA:214,5
DA:215,5
DA:216,5
DA:218,5
DA:220,5
DA:221,5
DA:222,0
DA:223,0
DA:225,5
DA:227,1
DA:228,1
DA:229,1
DA:230,1
DA:231,1
DA:232,1
DA:233,1
DA:234,1
DA:235,1
DA:236,1
DA:237,1
DA:239,9
DA:240,9
DA:241,9
DA:242,9
DA:243,9
DA:244,9
DA:245,9
DA:246,9
DA:247,9
DA:248,1
DA:249,8
DA:250,8
DA:251,7
DA:252,2
DA:253,5
DA:254,5
DA:255,5
DA:256,4
DA:257,4
DA:258,4
DA:260,9
DA:262,5
DA:263,5
DA:264,5
DA:265,5
DA:266,5
DA:267,5
DA:268,5
DA:269,5
DA:270,5
DA:271,5
DA:272,5
DA:273,0
DA:276,5
DA:277,5
DA:278,5
DA:280,6
DA:281,6
DA:282,6
DA:283,6
DA:284,6
DA:285,6
DA:286,6
DA:287,6
DA:289,6
DA:290,6
DA:291,6
DA:292,6
DA:293,6
DA:294,6
DA:295,6
DA:296,6
DA:297,6
DA:298,6
DA:299,0
DA:300,0
DA:301,0
DA:302,0
DA:303,0
DA:304,0
DA:305,0
DA:306,0
DA:307,0
DA:309,6
DA:311,10
DA:312,10
DA:313,5
DA:314,3
DA:315,2
DA:317,10
DA:319,7
DA:320,7
DA:321,2
DA:322,3
DA:323,2
DA:325,7
DA:327,5
DA:328,5
DA:329,4
DA:331,1
DA:332,1
DA:333,1
DA:334,1
DA:336,5
DA:338,5
DA:339,5
DA:340,5
DA:341,5
DA:342,5
DA:343,5
DA:344,0
DA:345,0
DA:347,5
DA:349,6
DA:350,6
DA:351,6
DA:352,6
DA:353,6
DA:354,6
DA:355,6
DA:358,5
DA:359,5
DA:361,6
DA:362,6
DA:363,6
DA:364,6
DA:365,6
DA:366,6
DA:367,6
DA:368,6
DA:370,6
DA:372,5
DA:373,5
DA:374,5
DA:375,5
DA:376,5
DA:377,5
DA:378,5
DA:379,5
DA:380,5
DA:388,1
DA:389,1
DA:390,1
DA:391,1
DA:392,1
DA:395,1
DA:396,1
DA:397,1
DA:398,1
DA:399,1
DA:402,1
DA:403,1
DA:404,1
DA:405,1
DA:406,1
DA:407,1
DA:408,1
DA:409,1
DA:410,1
DA:411,1
DA:412,1
DA:413,1
DA:414,1
DA:415,1
DA:416,1
DA:417,1
DA:418,1
DA:419,1
DA:420,1
DA:423,1
DA:424,1
DA:425,1
DA:426,1
DA:427,1
DA:428,1
DA:429,1
DA:430,1
DA:431,1
DA:432,1
DA:433,1
DA:434,1
DA:435,1
DA:436,1
DA:437,1
DA:438,1
DA:439,1
DA:440,1
DA:443,1
DA:444,1
DA:445,1
DA:446,1
DA:447,1
DA:448,1
DA:449,1
DA:450,1
DA:451,1
DA:452,1
DA:453,1
DA:454,1
DA:455,1
DA:456,1
DA:457,1
DA:458,1
DA:459,1
DA:460,1
DA:461,1
DA:462,1
DA:463,1
DA:464,1
DA:465,1
DA:466,1
DA:467,1
DA:469,1
DA:472,1
DA:473,2
DA:474,1
DA:475,1
DA:477,1
DA:478,1
DA:481,1
DA:482,1
DA:483,1
DA:484,1
DA:485,1
DA:486,1
DA:487,1
DA:488,1
DA:489,1
DA:490,1
DA:491,1
DA:492,1
DA:493,1
DA:494,1
DA:495,1
DA:496,1
DA:497,1
DA:498,1
DA:499,1
DA:500,1
DA:501,1
DA:502,1
DA:503,1
DA:505,1
DA:507,1
DA:508,1
DA:509,1
DA:512,1
DA:513,1
DA:514,1
DA:515,1
DA:516,1
DA:517,1
DA:518,1
DA:519,1
DA:520,1
DA:521,1
DA:522,1
DA:523,1
DA:524,1
DA:525,1
DA:526,1
DA:527,1
DA:528,1
DA:529,1
DA:530,1
DA:533,1
DA:534,1
DA:535,1
DA:538,1
DA:539,1
DA:540,1
DA:541,1
DA:542,1
DA:543,1
DA:544,1
DA:545,1
DA:546,1
DA:547,1
DA:548,1
DA:549,1
DA:550,1
DA:551,1
DA:552,1
DA:553,1
DA:554,1
DA:555,1
DA:556,1
DA:557,1
DA:558,1
DA:559,1
DA:560,1
DA:561,1
DA:563,1
DA:566,1
DA:567,1
DA:570,1
DA:571,1
DA:572,1
DA:573,1
DA:574,1
DA:575,1
DA:576,1
DA:577,1
DA:578,1
DA:579,1
DA:582,1
DA:583,1
DA:584,1
DA:586,1
DA:587,1
DA:588,1
DA:589,1
DA:590,1
DA:591,1
DA:592,1
DA:593,1
DA:594,1
DA:595,1
DA:596,1
DA:597,1
DA:598,1
DA:599,1
DA:600,1
DA:601,1
DA:602,1
DA:603,1
DA:604,1
DA:607,1
DA:609,1
DA:610,1
DA:611,1
DA:612,1
DA:614,1
DA:615,1
DA:617,1
DA:618,1
DA:619,1
DA:620,1
DA:621,1
DA:622,1
DA:623,1
DA:626,1
DA:627,1
DA:628,1
DA:629,1
DA:630,1
DA:631,1
DA:632,1
DA:633,1
DA:634,1
DA:635,1
DA:636,1
DA:637,1
DA:638,1
DA:639,1
DA:641,1
DA:642,1
DA:644,1
DA:645,1
DA:646,1
DA:647,1
DA:648,1
DA:651,1
DA:652,1
DA:653,1
DA:654,1
DA:655,1
DA:656,1
DA:658,1
DA:659,1
DA:660,1
DA:661,1
DA:662,1
DA:663,1
DA:664,1
BRF:0
BRH:0
LF:517
LH:471
end_of_record
SF:/home/james/Projects/VibeEye/crates/vibeeye-app/src/crawl/robots.rs
FN:56,_RNvMNtNtCskaWsK9vzoU7_11vibeeye_app5crawl6robotsNtB2_9RobotsTxt10is_allowed
FN:22,_RNvMNtNtCskaWsK9vzoU7_11vibeeye_app5crawl6robotsNtB2_9RobotsTxt5fetch
FN:42,_RNvMNtNtCskaWsK9vzoU7_11vibeeye_app5crawl6robotsNtB2_9RobotsTxt5parse
FN:75,_RNvNtNtCskaWsK9vzoU7_11vibeeye_app5crawl6robots10parse_line
FN:22,_RNCNvMNtNtCskaWsK9vzoU7_11vibeeye_app5crawl6robotsNtB4_9RobotsTxt5fetch0B8_
FN:122,_RNvNtNtNtCs8KrzqRtvcCn_11vibeeye_app5crawl6robots5testss_20test_robots_disallow
FN:132,_RNvNtNtNtCs8KrzqRtvcCn_11vibeeye_app5crawl6robots5testss_26test_robots_allow_override
FN:141,_RNvNtNtNtCs8KrzqRtvcCn_11vibeeye_app5crawl6robots5testss_31test_robots_only_wildcard_block
FN:116,_RNvNtNtNtCs8KrzqRtvcCn_11vibeeye_app5crawl6robots5testss_32test_robots_allow_all_when_empty
FN:22,_RNCNvMNtNtCs8KrzqRtvcCn_11vibeeye_app5crawl6robotsNtB4_9RobotsTxt5fetch0B8_
FN:56,_RNvMNtNtCs8KrzqRtvcCn_11vibeeye_app5crawl6robotsNtB2_9RobotsTxt10is_allowed
FN:22,_RNvMNtNtCs8KrzqRtvcCn_11vibeeye_app5crawl6robotsNtB2_9RobotsTxt5fetch
FN:42,_RNvMNtNtCs8KrzqRtvcCn_11vibeeye_app5crawl6robotsNtB2_9RobotsTxt5parse
FN:75,_RNvNtNtCs8KrzqRtvcCn_11vibeeye_app5crawl6robots10parse_line
FNDA:5,_RNvMNtNtCskaWsK9vzoU7_11vibeeye_app5crawl6robotsNtB2_9RobotsTxt10is_allowed
FNDA:0,_RNvMNtNtCskaWsK9vzoU7_11vibeeye_app5crawl6robotsNtB2_9RobotsTxt5fetch
FNDA:0,_RNvMNtNtCskaWsK9vzoU7_11vibeeye_app5crawl6robotsNtB2_9RobotsTxt5parse
FNDA:0,_RNvNtNtCskaWsK9vzoU7_11vibeeye_app5crawl6robots10parse_line
FNDA:0,_RNCNvMNtNtCskaWsK9vzoU7_11vibeeye_app5crawl6robotsNtB4_9RobotsTxt5fetch0B8_
FNDA:1,_RNvNtNtNtCs8KrzqRtvcCn_11vibeeye_app5crawl6robots5testss_20test_robots_disallow
FNDA:1,_RNvNtNtNtCs8KrzqRtvcCn_11vibeeye_app5crawl6robots5testss_26test_robots_allow_override
FNDA:1,_RNvNtNtNtCs8KrzqRtvcCn_11vibeeye_app5crawl6robots5testss_31test_robots_only_wildcard_block
FNDA:1,_RNvNtNtNtCs8KrzqRtvcCn_11vibeeye_app5crawl6robots5testss_32test_robots_allow_all_when_empty
FNDA:0,_RNCNvMNtNtCs8KrzqRtvcCn_11vibeeye_app5crawl6robotsNtB4_9RobotsTxt5fetch0B8_
FNDA:12,_RNvMNtNtCs8KrzqRtvcCn_11vibeeye_app5crawl6robotsNtB2_9RobotsTxt10is_allowed
FNDA:0,_RNvMNtNtCs8KrzqRtvcCn_11vibeeye_app5crawl6robotsNtB2_9RobotsTxt5fetch
FNDA:4,_RNvMNtNtCs8KrzqRtvcCn_11vibeeye_app5crawl6robotsNtB2_9RobotsTxt5parse
FNDA:12,_RNvNtNtCs8KrzqRtvcCn_11vibeeye_app5crawl6robots10parse_line
FNF:9
FNH:7
DA:22,0
DA:23,0
DA:24,0
DA:25,0
DA:26,0
DA:28,0
DA:29,0
DA:32,0
DA:33,0
DA:34,0
DA:35,0
DA:37,0
DA:39,0
DA:42,4
DA:43,4
DA:44,4
DA:46,12
DA:47,12
DA:48,6
DA:49,6
DA:52,4
DA:53,4
DA:56,17
DA:57,17
DA:58,8
DA:59,9
DA:61,9
DA:62,9
DA:64,14
DA:65,14
DA:66,7
DA:67,7
DA:68,7
DA:71,9
DA:72,17
DA:75,12
DA:76,12
DA:77,12
DA:78,0
DA:79,12
DA:81,12
DA:82,12
DA:83,5
DA:84,5
DA:85,5
DA:86,7
DA:88,7
DA:89,1
DA:90,6
DA:92,6
DA:93,5
DA:94,5
DA:95,5
DA:96,5
DA:97,5
DA:98,1
DA:100,1
DA:101,1
DA:102,1
DA:103,1
DA:104,1
DA:105,1
DA:106,0
DA:108,0
DA:109,12
DA:116,1
DA:117,1
DA:118,1
DA:119,1
DA:122,1
DA:123,1
DA:124,1
DA:126,1
DA:127,1
DA:128,1
DA:129,1
DA:132,1
DA:133,1
DA:134,1
DA:136,1
DA:137,1
DA:138,1
DA:141,1
DA:142,1
DA:143,1
DA:145,1
DA:146,1
DA:147,1
BRF:0
BRH:0
LF:89
LH:72
end_of_record
SF:/home/james/Projects/VibeEye/crates/vibeeye-app/src/crawl/sitemap.rs
FN:8,_RNCNvNtNtCskaWsK9vzoU7_11vibeeye_app5crawl7sitemap13fetch_sitemap0B7_
FN:81,_RNvNtNtCskaWsK9vzoU7_11vibeeye_app5crawl7sitemap10is_end_tag
FN:46,_RNvNtNtCskaWsK9vzoU7_11vibeeye_app5crawl7sitemap12handle_event
FN:77,_RNvNtNtCskaWsK9vzoU7_11vibeeye_app5crawl7sitemap12is_start_tag
FN:8,_RNvNtNtCskaWsK9vzoU7_11vibeeye_app5crawl7sitemap13fetch_sitemap
FN:30,_RNvNtNtCskaWsK9vzoU7_11vibeeye_app5crawl7sitemap13parse_sitemap
FN:66,_RNvNtNtCskaWsK9vzoU7_11vibeeye_app5crawl7sitemap15try_extract_url
FN:8,_RNCNvNtNtCs8KrzqRtvcCn_11vibeeye_app5crawl7sitemap13fetch_sitemap0B7_
FN:81,_RNvNtNtCs8KrzqRtvcCn_11vibeeye_app5crawl7sitemap10is_end_tag
FN:46,_RNvNtNtCs8KrzqRtvcCn_11vibeeye_app5crawl7sitemap12handle_event
FN:77,_RNvNtNtCs8KrzqRtvcCn_11vibeeye_app5crawl7sitemap12is_start_tag
FN:8,_RNvNtNtCs8KrzqRtvcCn_11vibeeye_app5crawl7sitemap13fetch_sitemap
FN:30,_RNvNtNtCs8KrzqRtvcCn_11vibeeye_app5crawl7sitemap13parse_sitemap
FN:66,_RNvNtNtCs8KrzqRtvcCn_11vibeeye_app5crawl7sitemap15try_extract_url
FN:90,_RNvNtNtNtCs8KrzqRtvcCn_11vibeeye_app5crawl7sitemap5testss_18test_parse_sitemap
FN:109,_RNvNtNtNtCs8KrzqRtvcCn_11vibeeye_app5crawl7sitemap5testss_24test_parse_sitemap_empty
FNDA:0,_RNCNvNtNtCskaWsK9vzoU7_11vibeeye_app5crawl7sitemap13fetch_sitemap0B7_
FNDA:0,_RNvNtNtCskaWsK9vzoU7_11vibeeye_app5crawl7sitemap10is_end_tag
FNDA:0,_RNvNtNtCskaWsK9vzoU7_11vibeeye_app5crawl7sitemap12handle_event
FNDA:0,_RNvNtNtCskaWsK9vzoU7_11vibeeye_app5crawl7sitemap12is_start_tag
FNDA:0,_RNvNtNtCskaWsK9vzoU7_11vibeeye_app5crawl7sitemap13fetch_sitemap
FNDA:0,_RNvNtNtCskaWsK9vzoU7_11vibeeye_app5crawl7sitemap13parse_sitemap
FNDA:0,_RNvNtNtCskaWsK9vzoU7_11vibeeye_app5crawl7sitemap15try_extract_url
FNDA:0,_RNCNvNtNtCs8KrzqRtvcCn_11vibeeye_app5crawl7sitemap13fetch_sitemap0B7_
FNDA:25,_RNvNtNtCs8KrzqRtvcCn_11vibeeye_app5crawl7sitemap10is_end_tag
FNDA:29,_RNvNtNtCs8KrzqRtvcCn_11vibeeye_app5crawl7sitemap12handle_event
FNDA:27,_RNvNtNtCs8KrzqRtvcCn_11vibeeye_app5crawl7sitemap12is_start_tag
FNDA:0,_RNvNtNtCs8KrzqRtvcCn_11vibeeye_app5crawl7sitemap13fetch_sitemap
FNDA:2,_RNvNtNtCs8KrzqRtvcCn_11vibeeye_app5crawl7sitemap13parse_sitemap
FNDA:12,_RNvNtNtCs8KrzqRtvcCn_11vibeeye_app5crawl7sitemap15try_extract_url
FNDA:1,_RNvNtNtNtCs8KrzqRtvcCn_11vibeeye_app5crawl7sitemap5testss_18test_parse_sitemap
FNDA:1,_RNvNtNtNtCs8KrzqRtvcCn_11vibeeye_app5crawl7sitemap5testss_24test_parse_sitemap_empty
FNF:9
FNH:7
DA:8,0
DA:9,0
DA:10,0
DA:11,0
DA:12,0
DA:14,0
DA:15,0
DA:18,0
DA:19,0
DA:20,0
DA:21,0
DA:23,0
DA:26,0
DA:27,0
DA:30,2
DA:31,2
DA:32,2
DA:33,2
DA:34,2
DA:36,29
DA:37,29
DA:38,2
DA:39,27
DA:40,27
DA:43,2
DA:44,2
DA:46,29
DA:47,29
DA:48,29
DA:49,29
DA:50,29
DA:51,29
DA:52,2
DA:53,27
DA:55,27
DA:56,2
DA:57,25
DA:58,2
DA:59,23
DA:60,12
DA:61,12
DA:63,27
DA:64,29
DA:66,12
DA:67,12
DA:68,10
DA:69,2
DA:70,2
DA:71,2
DA:72,2
DA:73,2
DA:74,2
DA:75,12
DA:77,27
DA:78,7
DA:79,27
DA:81,25
DA:82,7
DA:83,25
DA:90,1
DA:91,1
DA:92,1
DA:93,1
DA:94,1
DA:95,1
DA:96,1
DA:97,1
DA:98,1
DA:99,1
DA:100,1
DA:102,1
DA:103,1
DA:104,1
DA:105,1
DA:106,1
DA:109,1
DA:110,1
DA:111,1
DA:112,1
BRF:0
BRH:0
LF:80
LH:65
end_of_record
SF:/home/james/Projects/VibeEye/crates/vibeeye-app/src/discovery.rs
FN:69,_RINvNtCs8KrzqRtvcCn_11vibeeye_app9discovery14type_to_schemapEB4_
FN:31,_RNvYpNtNtCs8KrzqRtvcCn_11vibeeye_app9discovery14SonarDiscovery19capability_metadataB7_
FNDA:0,_RINvNtCs8KrzqRtvcCn_11vibeeye_app9discovery14type_to_schemapEB4_
FNDA:0,_RNvYpNtNtCs8KrzqRtvcCn_11vibeeye_app9discovery14SonarDiscovery19capability_metadataB7_
FNF:2
FNH:0
DA:31,0
DA:32,0
DA:33,0
DA:34,0
DA:36,0
DA:69,0
DA:70,0
DA:71,0
BRF:0
BRH:0
LF:8
LH:0
end_of_record
SF:/home/james/Projects/VibeEye/crates/vibeeye-app/src/extraction/dom.rs
FN:19,_RNvNtNtCskaWsK9vzoU7_11vibeeye_app10extraction3dom16extract_metadata
FN:21,_RNCNvNtNtCskaWsK9vzoU7_11vibeeye_app10extraction3dom16extract_metadata0B7_
FN:26,_RNCNvNtNtCskaWsK9vzoU7_11vibeeye_app10extraction3dom16extract_metadatas0_0B7_
FN:27,_RNCNvNtNtCskaWsK9vzoU7_11vibeeye_app10extraction3dom16extract_metadatas1_0B7_
FN:25,_RNCNvNtNtCskaWsK9vzoU7_11vibeeye_app10extraction3dom16extract_metadatas_0B7_
FN:21,_RNCNvNtNtCs8KrzqRtvcCn_11vibeeye_app10extraction3dom16extract_metadata0B7_
FN:26,_RNCNvNtNtCs8KrzqRtvcCn_11vibeeye_app10extraction3dom16extract_metadatas0_0B7_
FN:27,_RNCNvNtNtCs8KrzqRtvcCn_11vibeeye_app10extraction3dom16extract_metadatas1_0B7_
FN:25,_RNCNvNtNtCs8KrzqRtvcCn_11vibeeye_app10extraction3dom16extract_metadatas_0B7_
FN:19,_RNvNtNtCs8KrzqRtvcCn_11vibeeye_app10extraction3dom16extract_metadata
FN:44,_RNvNtNtNtCs8KrzqRtvcCn_11vibeeye_app10extraction3dom5testss_15test_empty_html
FN:37,_RNvNtNtNtCs8KrzqRtvcCn_11vibeeye_app10extraction3dom5testss_21test_title_extraction
FNDA:10,_RNvNtNtCskaWsK9vzoU7_11vibeeye_app10extraction3dom16extract_metadata
FNDA:0,_RNCNvNtNtCskaWsK9vzoU7_11vibeeye_app10extraction3dom16extract_metadata0B7_
FNDA:0,_RNCNvNtNtCskaWsK9vzoU7_11vibeeye_app10extraction3dom16extract_metadatas0_0B7_
FNDA:0,_RNCNvNtNtCskaWsK9vzoU7_11vibeeye_app10extraction3dom16extract_metadatas1_0B7_
FNDA:10,_RNCNvNtNtCskaWsK9vzoU7_11vibeeye_app10extraction3dom16extract_metadatas_0B7_
FNDA:0,_RNCNvNtNtCs8KrzqRtvcCn_11vibeeye_app10extraction3dom16extract_metadata0B7_
FNDA:0,_RNCNvNtNtCs8KrzqRtvcCn_11vibeeye_app10extraction3dom16extract_metadatas0_0B7_
FNDA:0,_RNCNvNtNtCs8KrzqRtvcCn_11vibeeye_app10extraction3dom16extract_metadatas1_0B7_
FNDA:6,_RNCNvNtNtCs8KrzqRtvcCn_11vibeeye_app10extraction3dom16extract_metadatas_0B7_
FNDA:7,_RNvNtNtCs8KrzqRtvcCn_11vibeeye_app10extraction3dom16extract_metadata
FNDA:1,_RNvNtNtNtCs8KrzqRtvcCn_11vibeeye_app10extraction3dom5testss_15test_empty_html
FNDA:1,_RNvNtNtNtCs8KrzqRtvcCn_11vibeeye_app10extraction3dom5testss_21test_title_extraction
FNF:7
FNH:4
DA:19,17
DA:20,17
DA:21,17
DA:23,17
DA:25,17
DA:26,17
DA:27,17
DA:28,17
DA:30,17
DA:37,1
DA:38,1
DA:39,1
DA:40,1
DA:41,1
DA:44,1
DA:45,1
DA:46,1
DA:47,1
DA:48,1
BRF:0
BRH:0
LF:23
LH:20
end_of_record
SF:/home/james/Projects/VibeEye/crates/vibeeye-app/src/extraction/markdown.rs
FN:13,_RNvNtNtCskaWsK9vzoU7_11vibeeye_app10extraction8markdown16html_to_markdown
FN:15,_RNCNvNtNtCskaWsK9vzoU7_11vibeeye_app10extraction8markdown16html_to_markdown0B7_
FN:13,_RNvNtNtCs8KrzqRtvcCn_11vibeeye_app10extraction8markdown16html_to_markdown
FN:48,_RNvNtNtNtCs8KrzqRtvcCn_11vibeeye_app10extraction8markdown5testss_15test_code_block
FN:25,_RNvNtNtNtCs8KrzqRtvcCn_11vibeeye_app10extraction8markdown5testss_26test_heading_and_paragraph
FN:33,_RNvNtNtNtCs8KrzqRtvcCn_11vibeeye_app10extraction8markdown5testss_9test_link
FN:40,_RNvNtNtNtCs8KrzqRtvcCn_11vibeeye_app10extraction8markdown5testss_9test_list
FN:15,_RNCNvNtNtCs8KrzqRtvcCn_11vibeeye_app10extraction8markdown16html_to_markdown0B7_
FNDA:3,_RNvNtNtCskaWsK9vzoU7_11vibeeye_app10extraction8markdown16html_to_markdown
FNDA:0,_RNCNvNtNtCskaWsK9vzoU7_11vibeeye_app10extraction8markdown16html_to_markdown0B7_
FNDA:6,_RNvNtNtCs8KrzqRtvcCn_11vibeeye_app10extraction8markdown16html_to_markdown
FNDA:1,_RNvNtNtNtCs8KrzqRtvcCn_11vibeeye_app10extraction8markdown5testss_15test_code_block
FNDA:1,_RNvNtNtNtCs8KrzqRtvcCn_11vibeeye_app10extraction8markdown5testss_26test_heading_and_paragraph
FNDA:1,_RNvNtNtNtCs8KrzqRtvcCn_11vibeeye_app10extraction8markdown5testss_9test_link
FNDA:1,_RNvNtNtNtCs8KrzqRtvcCn_11vibeeye_app10extraction8markdown5testss_9test_list
FNDA:0,_RNCNvNtNtCs8KrzqRtvcCn_11vibeeye_app10extraction8markdown16html_to_markdown0B7_
FNF:6
FNH:5
DA:13,9
DA:14,9
DA:15,9
DA:17,9
DA:18,9
DA:25,1
DA:26,1
DA:27,1
DA:28,1
DA:29,1
DA:30,1
DA:33,1
DA:34,1
DA:35,1
DA:36,1
DA:37,1
DA:40,1
DA:41,1
DA:42,1
DA:43,1
DA:44,1
DA:45,1
DA:48,1
DA:49,1
DA:50,1
DA:51,1
DA:52,1
DA:53,1
BRF:0
BRH:0
LF:29
LH:28
end_of_record
SF:/home/james/Projects/VibeEye/crates/vibeeye-app/src/extraction/mod.rs
FN:31,_RNvNtCskaWsK9vzoU7_11vibeeye_app10extraction10clean_html
FN:58,_RNvNtCskaWsK9vzoU7_11vibeeye_app10extraction10strip_html
FN:72,_RNvNtCskaWsK9vzoU7_11vibeeye_app10extraction13extract_title
FN:46,_RNvNtCskaWsK9vzoU7_11vibeeye_app10extraction7extract
FN:35,_RNCNvNtCskaWsK9vzoU7_11vibeeye_app10extraction10clean_html0B5_
FN:60,_RNCNvNtCskaWsK9vzoU7_11vibeeye_app10extraction10strip_html0B5_
FN:31,_RNvNtCs8KrzqRtvcCn_11vibeeye_app10extraction10clean_html
FN:58,_RNvNtCs8KrzqRtvcCn_11vibeeye_app10extraction10strip_html
FN:72,_RNvNtCs8KrzqRtvcCn_11vibeeye_app10extraction13extract_title
FN:46,_RNvNtCs8KrzqRtvcCn_11vibeeye_app10extraction7extract
FN:35,_RNCNvNtCs8KrzqRtvcCn_11vibeeye_app10extraction10clean_html0B5_
FN:60,_RNCNvNtCs8KrzqRtvcCn_11vibeeye_app10extraction10strip_html0B5_
FNDA:5,_RNvNtCskaWsK9vzoU7_11vibeeye_app10extraction10clean_html
FNDA:3,_RNvNtCskaWsK9vzoU7_11vibeeye_app10extraction10strip_html
FNDA:10,_RNvNtCskaWsK9vzoU7_11vibeeye_app10extraction13extract_title
FNDA:8,_RNvNtCskaWsK9vzoU7_11vibeeye_app10extraction7extract
FNDA:1,_RNCNvNtCskaWsK9vzoU7_11vibeeye_app10extraction10clean_html0B5_
FNDA:27,_RNCNvNtCskaWsK9vzoU7_11vibeeye_app10extraction10strip_html0B5_
FNDA:3,_RNvNtCs8KrzqRtvcCn_11vibeeye_app10extraction10clean_html
FNDA:2,_RNvNtCs8KrzqRtvcCn_11vibeeye_app10extraction10strip_html
FNDA:5,_RNvNtCs8KrzqRtvcCn_11vibeeye_app10extraction13extract_title
FNDA:4,_RNvNtCs8KrzqRtvcCn_11vibeeye_app10extraction7extract
FNDA:0,_RNCNvNtCs8KrzqRtvcCn_11vibeeye_app10extraction10clean_html0B5_
FNDA:18,_RNCNvNtCs8KrzqRtvcCn_11vibeeye_app10extraction10strip_html0B5_
FNF:6
FNH:6
DA:31,8
DA:32,8
DA:33,96
DA:34,96
DA:35,96
DA:36,96
DA:37,1
DA:38,1
DA:39,1
DA:42,8
DA:43,8
DA:46,12
DA:47,12
DA:48,4
DA:49,3
DA:50,5
DA:52,12
DA:58,5
DA:59,5
DA:60,45
DA:61,5
DA:62,5
DA:63,5
DA:64,5
DA:65,5
DA:66,5
DA:72,15
DA:73,15
DA:74,15
DA:75,15
DA:76,15
BRF:0
BRH:0
LF:33
LH:33
end_of_record
SF:/home/james/Projects/VibeEye/crates/vibeeye-app/src/tool_registry.rs
FN:40,_RNCNvMs_NtCskaWsK9vzoU7_11vibeeye_app13tool_registryNtB6_12ToolRegistry12discover_all0B8_
FN:46,_RNCNvMs_NtCskaWsK9vzoU7_11vibeeye_app13tool_registryNtB6_12ToolRegistry12get_metadata0B8_
FN:50,_RNvMs_NtCskaWsK9vzoU7_11vibeeye_app13tool_registryNtB4_12ToolRegistry10list_tools
FN:37,_RNvMs_NtCskaWsK9vzoU7_11vibeeye_app13tool_registryNtB4_12ToolRegistry12discover_all
FN:45,_RNvMs_NtCskaWsK9vzoU7_11vibeeye_app13tool_registryNtB4_12ToolRegistry12get_metadata
FN:26,_RNvMs_NtCskaWsK9vzoU7_11vibeeye_app13tool_registryNtB4_12ToolRegistry3new
FN:55,_RNvMs_NtCskaWsK9vzoU7_11vibeeye_app13tool_registryNtB4_12ToolRegistry8has_tool
FN:31,_RNvMs_NtCskaWsK9vzoU7_11vibeeye_app13tool_registryNtB4_12ToolRegistry8register
FN:12,_RNvXNtCskaWsK9vzoU7_11vibeeye_app13tool_registryNtB2_12ToolRegistryNtNtCs8nPosuWgJFh_4core7default7Default7default
FN:40,_RNCNvMs_NtCs8KrzqRtvcCn_11vibeeye_app13tool_registryNtB6_12ToolRegistry12discover_all0B8_
FN:46,_RNCNvMs_NtCs8KrzqRtvcCn_11vibeeye_app13tool_registryNtB6_12ToolRegistry12get_metadata0B8_
FN:50,_RNvMs_NtCs8KrzqRtvcCn_11vibeeye_app13tool_registryNtB4_12ToolRegistry10list_tools
FN:37,_RNvMs_NtCs8KrzqRtvcCn_11vibeeye_app13tool_registryNtB4_12ToolRegistry12discover_all
FN:45,_RNvMs_NtCs8KrzqRtvcCn_11vibeeye_app13tool_registryNtB4_12ToolRegistry12get_metadata
FN:26,_RNvMs_NtCs8KrzqRtvcCn_11vibeeye_app13tool_registryNtB4_12ToolRegistry3new
FN:55,_RNvMs_NtCs8KrzqRtvcCn_11vibeeye_app13tool_registryNtB4_12ToolRegistry8has_tool
FN:31,_RNvMs_NtCs8KrzqRtvcCn_11vibeeye_app13tool_registryNtB4_12ToolRegistry8register
FN:12,_RNvXNtCs8KrzqRtvcCn_11vibeeye_app13tool_registryNtB2_12ToolRegistryNtNtCs8nPosuWgJFh_4core7default7Default7default
FNDA:3,_RNCNvMs_NtCskaWsK9vzoU7_11vibeeye_app13tool_registryNtB6_12ToolRegistry12discover_all0B8_
FNDA:0,_RNCNvMs_NtCskaWsK9vzoU7_11vibeeye_app13tool_registryNtB6_12ToolRegistry12get_metadata0B8_
FNDA:0,_RNvMs_NtCskaWsK9vzoU7_11vibeeye_app13tool_registryNtB4_12ToolRegistry10list_tools
FNDA:1,_RNvMs_NtCskaWsK9vzoU7_11vibeeye_app13tool_registryNtB4_12ToolRegistry12discover_all
FNDA:0,_RNvMs_NtCskaWsK9vzoU7_11vibeeye_app13tool_registryNtB4_12ToolRegistry12get_metadata
FNDA:1,_RNvMs_NtCskaWsK9vzoU7_11vibeeye_app13tool_registryNtB4_12ToolRegistry3new
FNDA:0,_RNvMs_NtCskaWsK9vzoU7_11vibeeye_app13tool_registryNtB4_12ToolRegistry8has_tool
FNDA:3,_RNvMs_NtCskaWsK9vzoU7_11vibeeye_app13tool_registryNtB4_12ToolRegistry8register
FNDA:1,_RNvXNtCskaWsK9vzoU7_11vibeeye_app13tool_registryNtB2_12ToolRegistryNtNtCs8nPosuWgJFh_4core7default7Default7default
FNDA:0,_RNCNvMs_NtCs8KrzqRtvcCn_11vibeeye_app13tool_registryNtB6_12ToolRegistry12discover_all0B8_
FNDA:0,_RNCNvMs_NtCs8KrzqRtvcCn_11vibeeye_app13tool_registryNtB6_12ToolRegistry12get_metadata0B8_
FNDA:0,_RNvMs_NtCs8KrzqRtvcCn_11vibeeye_app13tool_registryNtB4_12ToolRegistry10list_tools
FNDA:0,_RNvMs_NtCs8KrzqRtvcCn_11vibeeye_app13tool_registryNtB4_12ToolRegistry12discover_all
FNDA:0,_RNvMs_NtCs8KrzqRtvcCn_11vibeeye_app13tool_registryNtB4_12ToolRegistry12get_metadata
FNDA:0,_RNvMs_NtCs8KrzqRtvcCn_11vibeeye_app13tool_registryNtB4_12ToolRegistry3new
FNDA:0,_RNvMs_NtCs8KrzqRtvcCn_11vibeeye_app13tool_registryNtB4_12ToolRegistry8has_tool
FNDA:0,_RNvMs_NtCs8KrzqRtvcCn_11vibeeye_app13tool_registryNtB4_12ToolRegistry8register
FNDA:0,_RNvXNtCs8KrzqRtvcCn_11vibeeye_app13tool_registryNtB2_12ToolRegistryNtNtCs8nPosuWgJFh_4core7default7Default7default
FNF:9
FNH:5
DA:12,1
DA:13,1
DA:14,1
DA:15,1
DA:17,1
DA:18,1
DA:19,1
DA:20,1
DA:21,1
DA:26,1
DA:27,1
DA:28,1
DA:31,3
DA:32,3
DA:33,3
DA:34,3
DA:37,1
DA:38,1
DA:39,1
DA:40,3
DA:41,1
DA:42,1
DA:45,0
DA:46,0
DA:47,0
DA:50,0
DA:51,0
DA:52,0
DA:55,0
DA:56,0
DA:57,0
BRF:0
BRH:0
LF:33
LH:23
end_of_record
SF:/home/james/Projects/VibeEye/crates/vibeeye-app/src/tools/browse.rs
FN:41,_RNvXNtNtCskaWsK9vzoU7_11vibeeye_app5tools6browseNtB2_10BrowseToolNtNtB6_9discovery18CapabilityProvider11description
FN:45,_RNvXNtNtCskaWsK9vzoU7_11vibeeye_app5tools6browseNtB2_10BrowseToolNtNtB6_9discovery18CapabilityProvider12input_schema
FN:49,_RNvXNtNtCskaWsK9vzoU7_11vibeeye_app5tools6browseNtB2_10BrowseToolNtNtB6_9discovery18CapabilityProvider13output_schema
FN:37,_RNvXNtNtCskaWsK9vzoU7_11vibeeye_app5tools6browseNtB2_10BrowseToolNtNtB6_9discovery18CapabilityProvider4name
FN:78,_RNvXs6_NtNtCskaWsK9vzoU7_11vibeeye_app5tools6browseNtB5_10BrowseToolNtNtB9_9discovery4Tool7execute
FN:59,_RNvXs_NtNtCskaWsK9vzoU7_11vibeeye_app5tools6browseNtB4_10BrowseToolNtNtB8_9discovery14SonarDiscovery11description
FN:55,_RNvXs_NtNtCskaWsK9vzoU7_11vibeeye_app5tools6browseNtB4_10BrowseToolNtNtB8_9discovery14SonarDiscovery12command_name
FN:63,_RNvXs_NtNtCskaWsK9vzoU7_11vibeeye_app5tools6browseNtB4_10BrowseToolNtNtB8_9discovery14SonarDiscovery19capability_metadata
FN:41,_RNvXNtNtCs8KrzqRtvcCn_11vibeeye_app5tools6browseNtB2_10BrowseToolNtNtB6_9discovery18CapabilityProvider11description
FN:45,_RNvXNtNtCs8KrzqRtvcCn_11vibeeye_app5tools6browseNtB2_10BrowseToolNtNtB6_9discovery18CapabilityProvider12input_schema
FN:49,_RNvXNtNtCs8KrzqRtvcCn_11vibeeye_app5tools6browseNtB2_10BrowseToolNtNtB6_9discovery18CapabilityProvider13output_schema
FN:37,_RNvXNtNtCs8KrzqRtvcCn_11vibeeye_app5tools6browseNtB2_10BrowseToolNtNtB6_9discovery18CapabilityProvider4name
FN:59,_RNvXs_NtNtCs8KrzqRtvcCn_11vibeeye_app5tools6browseNtB4_10BrowseToolNtNtB8_9discovery14SonarDiscovery11description
FN:55,_RNvXs_NtNtCs8KrzqRtvcCn_11vibeeye_app5tools6browseNtB4_10BrowseToolNtNtB8_9discovery14SonarDiscovery12command_name
FN:63,_RNvXs_NtNtCs8KrzqRtvcCn_11vibeeye_app5tools6browseNtB4_10BrowseToolNtNtB8_9discovery14SonarDiscovery19capability_metadata
FN:78,_RNvXs6_NtNtCs8KrzqRtvcCn_11vibeeye_app5tools6browseNtB5_10BrowseToolNtNtB9_9discovery4Tool7execute
FNDA:1,_RNvXNtNtCskaWsK9vzoU7_11vibeeye_app5tools6browseNtB2_10BrowseToolNtNtB6_9discovery18CapabilityProvider11description
FNDA:1,_RNvXNtNtCskaWsK9vzoU7_11vibeeye_app5tools6browseNtB2_10BrowseToolNtNtB6_9discovery18CapabilityProvider12input_schema
FNDA:1,_RNvXNtNtCskaWsK9vzoU7_11vibeeye_app5tools6browseNtB2_10BrowseToolNtNtB6_9discovery18CapabilityProvider13output_schema
FNDA:2,_RNvXNtNtCskaWsK9vzoU7_11vibeeye_app5tools6browseNtB2_10BrowseToolNtNtB6_9discovery18CapabilityProvider4name
FNDA:1,_RNvXs6_NtNtCskaWsK9vzoU7_11vibeeye_app5tools6browseNtB5_10BrowseToolNtNtB9_9discovery4Tool7execute
FNDA:0,_RNvXs_NtNtCskaWsK9vzoU7_11vibeeye_app5tools6browseNtB4_10BrowseToolNtNtB8_9discovery14SonarDiscovery11description
FNDA:1,_RNvXs_NtNtCskaWsK9vzoU7_11vibeeye_app5tools6browseNtB4_10BrowseToolNtNtB8_9discovery14SonarDiscovery12command_name
FNDA:1,_RNvXs_NtNtCskaWsK9vzoU7_11vibeeye_app5tools6browseNtB4_10BrowseToolNtNtB8_9discovery14SonarDiscovery19capability_metadata
FNDA:0,_RNvXNtNtCs8KrzqRtvcCn_11vibeeye_app5tools6browseNtB2_10BrowseToolNtNtB6_9discovery18CapabilityProvider11description
FNDA:0,_RNvXNtNtCs8KrzqRtvcCn_11vibeeye_app5tools6browseNtB2_10BrowseToolNtNtB6_9discovery18CapabilityProvider12input_schema
FNDA:0,_RNvXNtNtCs8KrzqRtvcCn_11vibeeye_app5tools6browseNtB2_10BrowseToolNtNtB6_9discovery18CapabilityProvider13output_schema
FNDA:0,_RNvXNtNtCs8KrzqRtvcCn_11vibeeye_app5tools6browseNtB2_10BrowseToolNtNtB6_9discovery18CapabilityProvider4name
FNDA:0,_RNvXs_NtNtCs8KrzqRtvcCn_11vibeeye_app5tools6browseNtB4_10BrowseToolNtNtB8_9discovery14SonarDiscovery11description
FNDA:0,_RNvXs_NtNtCs8KrzqRtvcCn_11vibeeye_app5tools6browseNtB4_10BrowseToolNtNtB8_9discovery14SonarDiscovery12command_name
FNDA:0,_RNvXs_NtNtCs8KrzqRtvcCn_11vibeeye_app5tools6browseNtB4_10BrowseToolNtNtB8_9discovery14SonarDiscovery19capability_metadata
FNDA:1,_RNvXs6_NtNtCs8KrzqRtvcCn_11vibeeye_app5tools6browseNtB5_10BrowseToolNtNtB9_9discovery4Tool7execute
FNF:8
FNH:7
DA:37,2
DA:38,2
DA:39,2
DA:41,1
DA:42,1
DA:43,1
DA:45,1
DA:46,1
DA:47,1
DA:49,1
DA:50,1
DA:51,1
DA:55,1
DA:56,1
DA:57,1
DA:59,0
DA:60,0
DA:61,0
DA:63,1
DA:64,1
DA:65,1
DA:66,1
DA:67,1
DA:68,1
DA:70,1
DA:78,2
DA:86,2
BRF:0
BRH:0
LF:27
LH:24
end_of_record
SF:/home/james/Projects/VibeEye/crates/vibeeye-app/src/tools/common.rs
FN:15,_RNvNtNtCskaWsK9vzoU7_11vibeeye_app5tools6common20navigate_and_capture
FN:16,_RNCNCNvNtNtCskaWsK9vzoU7_11vibeeye_app5tools6common20navigate_and_capture00B9_
FN:26,_RNCNCNvNtNtCskaWsK9vzoU7_11vibeeye_app5tools6common20navigate_and_capture0s0_0B9_
FN:21,_RNCNCNvNtNtCskaWsK9vzoU7_11vibeeye_app5tools6common20navigate_and_capture0s_0B9_
FN:15,_RNCNvNtNtCskaWsK9vzoU7_11vibeeye_app5tools6common20navigate_and_capture0B7_
FN:16,_RNCNCNvNtNtCs8KrzqRtvcCn_11vibeeye_app5tools6common20navigate_and_capture00B9_
FN:26,_RNCNCNvNtNtCs8KrzqRtvcCn_11vibeeye_app5tools6common20navigate_and_capture0s0_0B9_
FN:21,_RNCNCNvNtNtCs8KrzqRtvcCn_11vibeeye_app5tools6common20navigate_and_capture0s_0B9_
FN:15,_RNCNvNtNtCs8KrzqRtvcCn_11vibeeye_app5tools6common20navigate_and_capture0B7_
FN:15,_RNvNtNtCs8KrzqRtvcCn_11vibeeye_app5tools6common20navigate_and_capture
FNDA:5,_RNvNtNtCskaWsK9vzoU7_11vibeeye_app5tools6common20navigate_and_capture
FNDA:0,_RNCNCNvNtNtCskaWsK9vzoU7_11vibeeye_app5tools6common20navigate_and_capture00B9_
FNDA:0,_RNCNCNvNtNtCskaWsK9vzoU7_11vibeeye_app5tools6common20navigate_and_capture0s0_0B9_
FNDA:0,_RNCNCNvNtNtCskaWsK9vzoU7_11vibeeye_app5tools6common20navigate_and_capture0s_0B9_
FNDA:5,_RNCNvNtNtCskaWsK9vzoU7_11vibeeye_app5tools6common20navigate_and_capture0B7_
FNDA:0,_RNCNCNvNtNtCs8KrzqRtvcCn_11vibeeye_app5tools6common20navigate_and_capture00B9_
FNDA:0,_RNCNCNvNtNtCs8KrzqRtvcCn_11vibeeye_app5tools6common20navigate_and_capture0s0_0B9_
FNDA:0,_RNCNCNvNtNtCs8KrzqRtvcCn_11vibeeye_app5tools6common20navigate_and_capture0s_0B9_
FNDA:5,_RNCNvNtNtCs8KrzqRtvcCn_11vibeeye_app5tools6common20navigate_and_capture0B7_
FNDA:5,_RNvNtNtCs8KrzqRtvcCn_11vibeeye_app5tools6common20navigate_and_capture
FNF:5
FNH:2
DA:15,10
DA:16,10
DA:18,10
DA:19,10
DA:20,10
DA:21,10
DA:23,10
DA:24,10
DA:25,10
DA:26,10
DA:28,10
DA:30,10
DA:32,10
DA:34,10
DA:35,10
BRF:0
BRH:0
LF:19
LH:16
end_of_record
SF:/home/james/Projects/VibeEye/crates/vibeeye-app/src/tools/extract.rs
FN:81,_RNvNtNtCskaWsK9vzoU7_11vibeeye_app5tools7extract12parse_format
FN:22,_RNvNtNtCskaWsK9vzoU7_11vibeeye_app5tools7extract14default_format
FN:48,_RNvXNtNtCskaWsK9vzoU7_11vibeeye_app5tools7extractNtB2_11ExtractToolNtNtB6_9discovery18CapabilityProvider11description
FN:52,_RNvXNtNtCskaWsK9vzoU7_11vibeeye_app5tools7extractNtB2_11ExtractToolNtNtB6_9discovery18CapabilityProvider12input_schema
FN:56,_RNvXNtNtCskaWsK9vzoU7_11vibeeye_app5tools7extractNtB2_11ExtractToolNtNtB6_9discovery18CapabilityProvider13output_schema
FN:44,_RNvXNtNtCskaWsK9vzoU7_11vibeeye_app5tools7extractNtB2_11ExtractToolNtNtB6_9discovery18CapabilityProvider4name
FN:94,_RNvXs6_NtNtCskaWsK9vzoU7_11vibeeye_app5tools7extractNtB5_11ExtractToolNtNtB9_9discovery4Tool7execute
FN:66,_RNvXs_NtNtCskaWsK9vzoU7_11vibeeye_app5tools7extractNtB4_11ExtractToolNtNtB8_9discovery14SonarDiscovery11description
FN:62,_RNvXs_NtNtCskaWsK9vzoU7_11vibeeye_app5tools7extractNtB4_11ExtractToolNtNtB8_9discovery14SonarDiscovery12command_name
FN:70,_RNvXs_NtNtCskaWsK9vzoU7_11vibeeye_app5tools7extractNtB4_11ExtractToolNtNtB8_9discovery14SonarDiscovery19capability_metadata
FN:22,_RNvNtNtCs8KrzqRtvcCn_11vibeeye_app5tools7extract14default_format
FN:48,_RNvXNtNtCs8KrzqRtvcCn_11vibeeye_app5tools7extractNtB2_11ExtractToolNtNtB6_9discovery18CapabilityProvider11description
FN:52,_RNvXNtNtCs8KrzqRtvcCn_11vibeeye_app5tools7extractNtB2_11ExtractToolNtNtB6_9discovery18CapabilityProvider12input_schema
FN:56,_RNvXNtNtCs8KrzqRtvcCn_11vibeeye_app5tools7extractNtB2_11ExtractToolNtNtB6_9discovery18CapabilityProvider13output_schema
FN:44,_RNvXNtNtCs8KrzqRtvcCn_11vibeeye_app5tools7extractNtB2_11ExtractToolNtNtB6_9discovery18CapabilityProvider4name
FN:66,_RNvXs_NtNtCs8KrzqRtvcCn_11vibeeye_app5tools7extractNtB4_11ExtractToolNtNtB8_9discovery14SonarDiscovery11description
FN:62,_RNvXs_NtNtCs8KrzqRtvcCn_11vibeeye_app5tools7extractNtB4_11ExtractToolNtNtB8_9discovery14SonarDiscovery12command_name
FN:70,_RNvXs_NtNtCs8KrzqRtvcCn_11vibeeye_app5tools7extractNtB4_11ExtractToolNtNtB8_9discovery14SonarDiscovery19capability_metadata
FN:81,_RNvNtNtCs8KrzqRtvcCn_11vibeeye_app5tools7extract12parse_format
FN:94,_RNvXs6_NtNtCs8KrzqRtvcCn_11vibeeye_app5tools7extractNtB5_11ExtractToolNtNtB9_9discovery4Tool7execute
FNDA:3,_RNvNtNtCskaWsK9vzoU7_11vibeeye_app5tools7extract12parse_format
FNDA:1,_RNvNtNtCskaWsK9vzoU7_11vibeeye_app5tools7extract14default_format
FNDA:1,_RNvXNtNtCskaWsK9vzoU7_11vibeeye_app5tools7extractNtB2_11ExtractToolNtNtB6_9discovery18CapabilityProvider11description
FNDA:1,_RNvXNtNtCskaWsK9vzoU7_11vibeeye_app5tools7extractNtB2_11ExtractToolNtNtB6_9discovery18CapabilityProvider12input_schema
FNDA:1,_RNvXNtNtCskaWsK9vzoU7_11vibeeye_app5tools7extractNtB2_11ExtractToolNtNtB6_9discovery18CapabilityProvider13output_schema
FNDA:2,_RNvXNtNtCskaWsK9vzoU7_11vibeeye_app5tools7extractNtB2_11ExtractToolNtNtB6_9discovery18CapabilityProvider4name
FNDA:3,_RNvXs6_NtNtCskaWsK9vzoU7_11vibeeye_app5tools7extractNtB5_11ExtractToolNtNtB9_9discovery4Tool7execute
FNDA:0,_RNvXs_NtNtCskaWsK9vzoU7_11vibeeye_app5tools7extractNtB4_11ExtractToolNtNtB8_9discovery14SonarDiscovery11description
FNDA:1,_RNvXs_NtNtCskaWsK9vzoU7_11vibeeye_app5tools7extractNtB4_11ExtractToolNtNtB8_9discovery14SonarDiscovery12command_name
FNDA:1,_RNvXs_NtNtCskaWsK9vzoU7_11vibeeye_app5tools7extractNtB4_11ExtractToolNtNtB8_9discovery14SonarDiscovery19capability_metadata
FNDA:0,_RNvNtNtCs8KrzqRtvcCn_11vibeeye_app5tools7extract14default_format
FNDA:0,_RNvXNtNtCs8KrzqRtvcCn_11vibeeye_app5tools7extractNtB2_11ExtractToolNtNtB6_9discovery18CapabilityProvider11description
FNDA:0,_RNvXNtNtCs8KrzqRtvcCn_11vibeeye_app5tools7extractNtB2_11ExtractToolNtNtB6_9discovery18CapabilityProvider12input_schema
FNDA:0,_RNvXNtNtCs8KrzqRtvcCn_11vibeeye_app5tools7extractNtB2_11ExtractToolNtNtB6_9discovery18CapabilityProvider13output_schema
FNDA:0,_RNvXNtNtCs8KrzqRtvcCn_11vibeeye_app5tools7extractNtB2_11ExtractToolNtNtB6_9discovery18CapabilityProvider4name
FNDA:0,_RNvXs_NtNtCs8KrzqRtvcCn_11vibeeye_app5tools7extractNtB4_11ExtractToolNtNtB8_9discovery14SonarDiscovery11description
FNDA:0,_RNvXs_NtNtCs8KrzqRtvcCn_11vibeeye_app5tools7extractNtB4_11ExtractToolNtNtB8_9discovery14SonarDiscovery12command_name
FNDA:0,_RNvXs_NtNtCs8KrzqRtvcCn_11vibeeye_app5tools7extractNtB4_11ExtractToolNtNtB8_9discovery14SonarDiscovery19capability_metadata
FNDA:3,_RNvNtNtCs8KrzqRtvcCn_11vibeeye_app5tools7extract12parse_format
FNDA:3,_RNvXs6_NtNtCs8KrzqRtvcCn_11vibeeye_app5tools7extractNtB5_11ExtractToolNtNtB9_9discovery4Tool7execute
FNF:10
FNH:9
DA:22,1
DA:23,1
DA:24,1
DA:44,2
DA:45,2
DA:46,2
DA:48,1
DA:49,1
DA:50,1
DA:52,1
DA:53,1
DA:54,1
DA:56,1
DA:57,1
DA:58,1
DA:62,1
DA:63,1
DA:64,1
DA:66,0
DA:67,0
DA:68,0
DA:70,1
DA:71,1
DA:72,1
DA:73,1
DA:74,1
DA:75,1
DA:77,1
DA:81,6
DA:82,6
DA:83,6
DA:84,4
DA:85,2
DA:87,6
DA:94,6
DA:104,6
BRF:0
BRH:0
LF:36
LH:33
end_of_record
SF:/home/james/Projects/VibeEye/crates/vibeeye-app/src/tools/snapshot.rs
FN:40,_RNvXNtNtCskaWsK9vzoU7_11vibeeye_app5tools8snapshotNtB2_12SnapshotToolNtNtB6_9discovery18CapabilityProvider11description
FN:44,_RNvXNtNtCskaWsK9vzoU7_11vibeeye_app5tools8snapshotNtB2_12SnapshotToolNtNtB6_9discovery18CapabilityProvider12input_schema
FN:48,_RNvXNtNtCskaWsK9vzoU7_11vibeeye_app5tools8snapshotNtB2_12SnapshotToolNtNtB6_9discovery18CapabilityProvider13output_schema
FN:36,_RNvXNtNtCskaWsK9vzoU7_11vibeeye_app5tools8snapshotNtB2_12SnapshotToolNtNtB6_9discovery18CapabilityProvider4name
FN:77,_RNvXs6_NtNtCskaWsK9vzoU7_11vibeeye_app5tools8snapshotNtB5_12SnapshotToolNtNtB9_9discovery4Tool7execute
FN:58,_RNvXs_NtNtCskaWsK9vzoU7_11vibeeye_app5tools8snapshotNtB4_12SnapshotToolNtNtB8_9discovery14SonarDiscovery11description
FN:54,_RNvXs_NtNtCskaWsK9vzoU7_11vibeeye_app5tools8snapshotNtB4_12SnapshotToolNtNtB8_9discovery14SonarDiscovery12command_name
FN:62,_RNvXs_NtNtCskaWsK9vzoU7_11vibeeye_app5tools8snapshotNtB4_12SnapshotToolNtNtB8_9discovery14SonarDiscovery19capability_metadata
FN:40,_RNvXNtNtCs8KrzqRtvcCn_11vibeeye_app5tools8snapshotNtB2_12SnapshotToolNtNtB6_9discovery18CapabilityProvider11description
FN:44,_RNvXNtNtCs8KrzqRtvcCn_11vibeeye_app5tools8snapshotNtB2_12SnapshotToolNtNtB6_9discovery18CapabilityProvider12input_schema
FN:48,_RNvXNtNtCs8KrzqRtvcCn_11vibeeye_app5tools8snapshotNtB2_12SnapshotToolNtNtB6_9discovery18CapabilityProvider13output_schema
FN:36,_RNvXNtNtCs8KrzqRtvcCn_11vibeeye_app5tools8snapshotNtB2_12SnapshotToolNtNtB6_9discovery18CapabilityProvider4name
FN:58,_RNvXs_NtNtCs8KrzqRtvcCn_11vibeeye_app5tools8snapshotNtB4_12SnapshotToolNtNtB8_9discovery14SonarDiscovery11description
FN:54,_RNvXs_NtNtCs8KrzqRtvcCn_11vibeeye_app5tools8snapshotNtB4_12SnapshotToolNtNtB8_9discovery14SonarDiscovery12command_name
FN:62,_RNvXs_NtNtCs8KrzqRtvcCn_11vibeeye_app5tools8snapshotNtB4_12SnapshotToolNtNtB8_9discovery14SonarDiscovery19capability_metadata
FN:77,_RNvXs6_NtNtCs8KrzqRtvcCn_11vibeeye_app5tools8snapshotNtB5_12SnapshotToolNtNtB9_9discovery4Tool7execute
FNDA:1,_RNvXNtNtCskaWsK9vzoU7_11vibeeye_app5tools8snapshotNtB2_12SnapshotToolNtNtB6_9discovery18CapabilityProvider11description
FNDA:1,_RNvXNtNtCskaWsK9vzoU7_11vibeeye_app5tools8snapshotNtB2_12SnapshotToolNtNtB6_9discovery18CapabilityProvider12input_schema
FNDA:1,_RNvXNtNtCskaWsK9vzoU7_11vibeeye_app5tools8snapshotNtB2_12SnapshotToolNtNtB6_9discovery18CapabilityProvider13output_schema
FNDA:2,_RNvXNtNtCskaWsK9vzoU7_11vibeeye_app5tools8snapshotNtB2_12SnapshotToolNtNtB6_9discovery18CapabilityProvider4name
FNDA:1,_RNvXs6_NtNtCskaWsK9vzoU7_11vibeeye_app5tools8snapshotNtB5_12SnapshotToolNtNtB9_9discovery4Tool7execute
FNDA:0,_RNvXs_NtNtCskaWsK9vzoU7_11vibeeye_app5tools8snapshotNtB4_12SnapshotToolNtNtB8_9discovery14SonarDiscovery11description
FNDA:1,_RNvXs_NtNtCskaWsK9vzoU7_11vibeeye_app5tools8snapshotNtB4_12SnapshotToolNtNtB8_9discovery14SonarDiscovery12command_name
FNDA:1,_RNvXs_NtNtCskaWsK9vzoU7_11vibeeye_app5tools8snapshotNtB4_12SnapshotToolNtNtB8_9discovery14SonarDiscovery19capability_metadata
FNDA:0,_RNvXNtNtCs8KrzqRtvcCn_11vibeeye_app5tools8snapshotNtB2_12SnapshotToolNtNtB6_9discovery18CapabilityProvider11description
FNDA:0,_RNvXNtNtCs8KrzqRtvcCn_11vibeeye_app5tools8snapshotNtB2_12SnapshotToolNtNtB6_9discovery18CapabilityProvider12input_schema
FNDA:0,_RNvXNtNtCs8KrzqRtvcCn_11vibeeye_app5tools8snapshotNtB2_12SnapshotToolNtNtB6_9discovery18CapabilityProvider13output_schema
FNDA:0,_RNvXNtNtCs8KrzqRtvcCn_11vibeeye_app5tools8snapshotNtB2_12SnapshotToolNtNtB6_9discovery18CapabilityProvider4name
FNDA:0,_RNvXs_NtNtCs8KrzqRtvcCn_11vibeeye_app5tools8snapshotNtB4_12SnapshotToolNtNtB8_9discovery14SonarDiscovery11description
FNDA:0,_RNvXs_NtNtCs8KrzqRtvcCn_11vibeeye_app5tools8snapshotNtB4_12SnapshotToolNtNtB8_9discovery14SonarDiscovery12command_name
FNDA:0,_RNvXs_NtNtCs8KrzqRtvcCn_11vibeeye_app5tools8snapshotNtB4_12SnapshotToolNtNtB8_9discovery14SonarDiscovery19capability_metadata
FNDA:1,_RNvXs6_NtNtCs8KrzqRtvcCn_11vibeeye_app5tools8snapshotNtB5_12SnapshotToolNtNtB9_9discovery4Tool7execute
FNF:8
FNH:7
DA:36,2
DA:37,2
DA:38,2
DA:40,1
DA:41,1
DA:42,1
DA:44,1
DA:45,1
DA:46,1
DA:48,1
DA:49,1
DA:50,1
DA:54,1
DA:55,1
DA:56,1
DA:58,0
DA:59,0
DA:60,0
DA:62,1
DA:63,1
DA:64,1
DA:65,1
DA:66,1
DA:67,1
DA:69,1
DA:77,2
DA:88,2
BRF:0
BRH:0
LF:27
LH:24
end_of_record
SF:/home/james/Projects/VibeEye/crates/vibeeye-app/src/tools/tests.rs
FN:54,_RNvNtNtCs8KrzqRtvcCn_11vibeeye_app5tools5testss_22test_extract_tool_html
FN:69,_RNvNtNtCs8KrzqRtvcCn_11vibeeye_app5tools5testss_22test_extract_tool_text
FN:7,_RNvNtNtCs8KrzqRtvcCn_11vibeeye_app5tools5testss_24test_browse_tool_execute
FN:38,_RNvNtNtCs8KrzqRtvcCn_11vibeeye_app5tools5testss_26test_extract_tool_markdown
FN:23,_RNvNtNtCs8KrzqRtvcCn_11vibeeye_app5tools5testss_26test_snapshot_tool_execute
FN:54,_RNCNvNtNtCs8KrzqRtvcCn_11vibeeye_app5tools5testss_22test_extract_tool_html0B7_
FN:69,_RNCNvNtNtCs8KrzqRtvcCn_11vibeeye_app5tools5testss_22test_extract_tool_text0B7_
FN:7,_RNCNvNtNtCs8KrzqRtvcCn_11vibeeye_app5tools5testss_24test_browse_tool_execute0B7_
FN:38,_RNCNvNtNtCs8KrzqRtvcCn_11vibeeye_app5tools5testss_26test_extract_tool_markdown0B7_
FN:23,_RNCNvNtNtCs8KrzqRtvcCn_11vibeeye_app5tools5testss_26test_snapshot_tool_execute0B7_
FNDA:1,_RNvNtNtCs8KrzqRtvcCn_11vibeeye_app5tools5testss_22test_extract_tool_html
FNDA:1,_RNvNtNtCs8KrzqRtvcCn_11vibeeye_app5tools5testss_22test_extract_tool_text
FNDA:1,_RNvNtNtCs8KrzqRtvcCn_11vibeeye_app5tools5testss_24test_browse_tool_execute
FNDA:1,_RNvNtNtCs8KrzqRtvcCn_11vibeeye_app5tools5testss_26test_extract_tool_markdown
FNDA:1,_RNvNtNtCs8KrzqRtvcCn_11vibeeye_app5tools5testss_26test_snapshot_tool_execute
FNDA:1,_RNCNvNtNtCs8KrzqRtvcCn_11vibeeye_app5tools5testss_22test_extract_tool_html0B7_
FNDA:1,_RNCNvNtNtCs8KrzqRtvcCn_11vibeeye_app5tools5testss_22test_extract_tool_text0B7_
FNDA:1,_RNCNvNtNtCs8KrzqRtvcCn_11vibeeye_app5tools5testss_24test_browse_tool_execute0B7_
FNDA:1,_RNCNvNtNtCs8KrzqRtvcCn_11vibeeye_app5tools5testss_26test_extract_tool_markdown0B7_
FNDA:1,_RNCNvNtNtCs8KrzqRtvcCn_11vibeeye_app5tools5testss_26test_snapshot_tool_execute0B7_
FNF:10
FNH:10
DA:7,1
DA:8,1
DA:9,1
DA:10,1
DA:11,1
DA:12,1
DA:14,1
DA:15,1
DA:17,1
DA:18,1
DA:19,1
DA:20,1
DA:23,1
DA:24,1
DA:25,1
DA:26,1
DA:27,1
DA:29,1
DA:30,1
DA:32,1
DA:33,1
DA:34,1
DA:35,1
DA:38,1
DA:39,1
DA:40,1
DA:41,1
DA:42,1
DA:43,1
DA:45,1
DA:46,1
DA:48,1
DA:49,1
DA:50,1
DA:51,1
DA:54,1
DA:55,1
DA:56,1
DA:57,1
DA:58,1
DA:59,1
DA:61,1
DA:62,1
DA:64,1
DA:65,1
DA:66,1
DA:69,1
DA:70,1
DA:71,1
DA:72,1
DA:73,1
DA:74,1
DA:76,1
DA:77,1
DA:79,1
DA:80,1
DA:81,1
BRF:0
BRH:0
LF:67
LH:67
end_of_record
SF:/home/james/Projects/VibeEye/crates/vibeeye-cli/src/commands.rs
FN:86,_RINvNtCs8LYb7bINcrp_11vibeeye_cli8commands10print_jsonNtNtNtCskaWsK9vzoU7_11vibeeye_app5tools6browse12BrowseOutputEB4_
FN:86,_RINvNtCs8LYb7bINcrp_11vibeeye_cli8commands10print_jsonNtNtNtCskaWsK9vzoU7_11vibeeye_app5tools7extract13ExtractOutputEB4_
FN:86,_RINvNtCs8LYb7bINcrp_11vibeeye_cli8commands10print_jsonNtNtNtCskaWsK9vzoU7_11vibeeye_app5tools8snapshot14SnapshotOutputEB4_
FN:135,_RNCNCNvNtCs8LYb7bINcrp_11vibeeye_cli8commands13crawl_command00B7_
FN:108,_RNCNvNtCs8LYb7bINcrp_11vibeeye_cli8commands13crawl_command0B5_
FN:18,_RNCNvNtCs8LYb7bINcrp_11vibeeye_cli8commands3run0B5_
FN:77,_RNCNvNtCs8LYb7bINcrp_11vibeeye_cli8commands7extract0B5_
FN:56,_RNCNvNtCs8LYb7bINcrp_11vibeeye_cli8commands8navigate0B5_
FN:68,_RNCNvNtCs8LYb7bINcrp_11vibeeye_cli8commands8snapshot0B5_
FN:95,_RNvNtCs8LYb7bINcrp_11vibeeye_cli8commands13crawl_command
FN:18,_RNvNtCs8LYb7bINcrp_11vibeeye_cli8commands3run
FN:77,_RNvNtCs8LYb7bINcrp_11vibeeye_cli8commands7extract
FN:56,_RNvNtCs8LYb7bINcrp_11vibeeye_cli8commands8navigate
FN:68,_RNvNtCs8LYb7bINcrp_11vibeeye_cli8commands8snapshot
FN:86,_RINvNtCs3VzpdYZ24vU_8vibe_eye8commands10print_jsonNtNtNtCskaWsK9vzoU7_11vibeeye_app5tools6browse12BrowseOutputEB4_
FN:86,_RINvNtCs3VzpdYZ24vU_8vibe_eye8commands10print_jsonNtNtNtCskaWsK9vzoU7_11vibeeye_app5tools7extract13ExtractOutputEB4_
FN:86,_RINvNtCs3VzpdYZ24vU_8vibe_eye8commands10print_jsonNtNtNtCskaWsK9vzoU7_11vibeeye_app5tools8snapshot14SnapshotOutputEB4_
FN:135,_RNCNCNvNtCs3VzpdYZ24vU_8vibe_eye8commands13crawl_command00B7_
FN:108,_RNCNvNtCs3VzpdYZ24vU_8vibe_eye8commands13crawl_command0B5_
FN:18,_RNCNvNtCs3VzpdYZ24vU_8vibe_eye8commands3run0B5_
FN:77,_RNCNvNtCs3VzpdYZ24vU_8vibe_eye8commands7extract0B5_
FN:56,_RNCNvNtCs3VzpdYZ24vU_8vibe_eye8commands8navigate0B5_
FN:68,_RNCNvNtCs3VzpdYZ24vU_8vibe_eye8commands8snapshot0B5_
FN:95,_RNvNtCs3VzpdYZ24vU_8vibe_eye8commands13crawl_command
FN:77,_RNvNtCs3VzpdYZ24vU_8vibe_eye8commands7extract
FN:56,_RNvNtCs3VzpdYZ24vU_8vibe_eye8commands8navigate
FN:68,_RNvNtCs3VzpdYZ24vU_8vibe_eye8commands8snapshot
FN:18,_RNvNtCs3VzpdYZ24vU_8vibe_eye8commands3run
FN:95,_RNvNtCsfAYyu10MD3d_8vibe_eye8commands13crawl_command
FN:18,_RNvNtCsfAYyu10MD3d_8vibe_eye8commands3run
FN:77,_RNvNtCsfAYyu10MD3d_8vibe_eye8commands7extract
FN:56,_RNvNtCsfAYyu10MD3d_8vibe_eye8commands8navigate
FN:68,_RNvNtCsfAYyu10MD3d_8vibe_eye8commands8snapshot
FN:86,_RINvNtCsfAYyu10MD3d_8vibe_eye8commands10print_jsonNtNtNtCskaWsK9vzoU7_11vibeeye_app5tools6browse12BrowseOutputEB4_
FN:86,_RINvNtCsfAYyu10MD3d_8vibe_eye8commands10print_jsonNtNtNtCskaWsK9vzoU7_11vibeeye_app5tools7extract13ExtractOutputEB4_
FN:86,_RINvNtCsfAYyu10MD3d_8vibe_eye8commands10print_jsonNtNtNtCskaWsK9vzoU7_11vibeeye_app5tools8snapshot14SnapshotOutputEB4_
FN:135,_RNCNCNvNtCsfAYyu10MD3d_8vibe_eye8commands13crawl_command00B7_
FN:108,_RNCNvNtCsfAYyu10MD3d_8vibe_eye8commands13crawl_command0B5_
FN:18,_RNCNvNtCsfAYyu10MD3d_8vibe_eye8commands3run0B5_
FN:77,_RNCNvNtCsfAYyu10MD3d_8vibe_eye8commands7extract0B5_
FN:56,_RNCNvNtCsfAYyu10MD3d_8vibe_eye8commands8navigate0B5_
FN:68,_RNCNvNtCsfAYyu10MD3d_8vibe_eye8commands8snapshot0B5_
FN:86,_RINvNtCs7sAqA4TJs1D_11vibeeye_cli8commands10print_jsonNtNtNtCskaWsK9vzoU7_11vibeeye_app5tools6browse12BrowseOutputEB4_
FN:86,_RINvNtCs7sAqA4TJs1D_11vibeeye_cli8commands10print_jsonNtNtNtCskaWsK9vzoU7_11vibeeye_app5tools7extract13ExtractOutputEB4_
FN:86,_RINvNtCs7sAqA4TJs1D_11vibeeye_cli8commands10print_jsonNtNtNtCskaWsK9vzoU7_11vibeeye_app5tools8snapshot14SnapshotOutputEB4_
FN:135,_RNCNCNvNtCs7sAqA4TJs1D_11vibeeye_cli8commands13crawl_command00B7_
FN:108,_RNCNvNtCs7sAqA4TJs1D_11vibeeye_cli8commands13crawl_command0B5_
FN:18,_RNCNvNtCs7sAqA4TJs1D_11vibeeye_cli8commands3run0B5_
FN:77,_RNCNvNtCs7sAqA4TJs1D_11vibeeye_cli8commands7extract0B5_
FN:56,_RNCNvNtCs7sAqA4TJs1D_11vibeeye_cli8commands8navigate0B5_
FN:68,_RNCNvNtCs7sAqA4TJs1D_11vibeeye_cli8commands8snapshot0B5_
FN:95,_RNvNtCs7sAqA4TJs1D_11vibeeye_cli8commands13crawl_command
FN:77,_RNvNtCs7sAqA4TJs1D_11vibeeye_cli8commands7extract
FN:56,_RNvNtCs7sAqA4TJs1D_11vibeeye_cli8commands8navigate
FN:68,_RNvNtCs7sAqA4TJs1D_11vibeeye_cli8commands8snapshot
FN:18,_RNvNtCs7sAqA4TJs1D_11vibeeye_cli8commands3run
FNDA:0,_RINvNtCs8LYb7bINcrp_11vibeeye_cli8commands10print_jsonNtNtNtCskaWsK9vzoU7_11vibeeye_app5tools6browse12BrowseOutputEB4_
FNDA:0,_RINvNtCs8LYb7bINcrp_11vibeeye_cli8commands10print_jsonNtNtNtCskaWsK9vzoU7_11vibeeye_app5tools7extract13ExtractOutputEB4_
FNDA:0,_RINvNtCs8LYb7bINcrp_11vibeeye_cli8commands10print_jsonNtNtNtCskaWsK9vzoU7_11vibeeye_app5tools8snapshot14SnapshotOutputEB4_
FNDA:0,_RNCNCNvNtCs8LYb7bINcrp_11vibeeye_cli8commands13crawl_command00B7_
FNDA:0,_RNCNvNtCs8LYb7bINcrp_11vibeeye_cli8commands13crawl_command0B5_
FNDA:0,_RNCNvNtCs8LYb7bINcrp_11vibeeye_cli8commands3run0B5_
FNDA:0,_RNCNvNtCs8LYb7bINcrp_11vibeeye_cli8commands7extract0B5_
FNDA:0,_RNCNvNtCs8LYb7bINcrp_11vibeeye_cli8commands8navigate0B5_
FNDA:0,_RNCNvNtCs8LYb7bINcrp_11vibeeye_cli8commands8snapshot0B5_
FNDA:0,_RNvNtCs8LYb7bINcrp_11vibeeye_cli8commands13crawl_command
FNDA:0,_RNvNtCs8LYb7bINcrp_11vibeeye_cli8commands3run
FNDA:0,_RNvNtCs8LYb7bINcrp_11vibeeye_cli8commands7extract
FNDA:0,_RNvNtCs8LYb7bINcrp_11vibeeye_cli8commands8navigate
FNDA:0,_RNvNtCs8LYb7bINcrp_11vibeeye_cli8commands8snapshot
FNDA:0,_RINvNtCs3VzpdYZ24vU_8vibe_eye8commands10print_jsonNtNtNtCskaWsK9vzoU7_11vibeeye_app5tools6browse12BrowseOutputEB4_
FNDA:0,_RINvNtCs3VzpdYZ24vU_8vibe_eye8commands10print_jsonNtNtNtCskaWsK9vzoU7_11vibeeye_app5tools7extract13ExtractOutputEB4_
FNDA:0,_RINvNtCs3VzpdYZ24vU_8vibe_eye8commands10print_jsonNtNtNtCskaWsK9vzoU7_11vibeeye_app5tools8snapshot14SnapshotOutputEB4_
FNDA:0,_RNCNCNvNtCs3VzpdYZ24vU_8vibe_eye8commands13crawl_command00B7_
FNDA:0,_RNCNvNtCs3VzpdYZ24vU_8vibe_eye8commands13crawl_command0B5_
FNDA:0,_RNCNvNtCs3VzpdYZ24vU_8vibe_eye8commands3run0B5_
FNDA:0,_RNCNvNtCs3VzpdYZ24vU_8vibe_eye8commands7extract0B5_
FNDA:0,_RNCNvNtCs3VzpdYZ24vU_8vibe_eye8commands8navigate0B5_
FNDA:0,_RNCNvNtCs3VzpdYZ24vU_8vibe_eye8commands8snapshot0B5_
FNDA:0,_RNvNtCs3VzpdYZ24vU_8vibe_eye8commands13crawl_command
FNDA:0,_RNvNtCs3VzpdYZ24vU_8vibe_eye8commands7extract
FNDA:0,_RNvNtCs3VzpdYZ24vU_8vibe_eye8commands8navigate
FNDA:0,_RNvNtCs3VzpdYZ24vU_8vibe_eye8commands8snapshot
FNDA:0,_RNvNtCs3VzpdYZ24vU_8vibe_eye8commands3run
FNDA:0,_RNvNtCsfAYyu10MD3d_8vibe_eye8commands13crawl_command
FNDA:0,_RNvNtCsfAYyu10MD3d_8vibe_eye8commands3run
FNDA:0,_RNvNtCsfAYyu10MD3d_8vibe_eye8commands7extract
FNDA:0,_RNvNtCsfAYyu10MD3d_8vibe_eye8commands8navigate
FNDA:0,_RNvNtCsfAYyu10MD3d_8vibe_eye8commands8snapshot
FNDA:0,_RINvNtCsfAYyu10MD3d_8vibe_eye8commands10print_jsonNtNtNtCskaWsK9vzoU7_11vibeeye_app5tools6browse12BrowseOutputEB4_
FNDA:0,_RINvNtCsfAYyu10MD3d_8vibe_eye8commands10print_jsonNtNtNtCskaWsK9vzoU7_11vibeeye_app5tools7extract13ExtractOutputEB4_
FNDA:0,_RINvNtCsfAYyu10MD3d_8vibe_eye8commands10print_jsonNtNtNtCskaWsK9vzoU7_11vibeeye_app5tools8snapshot14SnapshotOutputEB4_
FNDA:0,_RNCNCNvNtCsfAYyu10MD3d_8vibe_eye8commands13crawl_command00B7_
FNDA:0,_RNCNvNtCsfAYyu10MD3d_8vibe_eye8commands13crawl_command0B5_
FNDA:0,_RNCNvNtCsfAYyu10MD3d_8vibe_eye8commands3run0B5_
FNDA:0,_RNCNvNtCsfAYyu10MD3d_8vibe_eye8commands7extract0B5_
FNDA:0,_RNCNvNtCsfAYyu10MD3d_8vibe_eye8commands8navigate0B5_
FNDA:0,_RNCNvNtCsfAYyu10MD3d_8vibe_eye8commands8snapshot0B5_
FNDA:0,_RINvNtCs7sAqA4TJs1D_11vibeeye_cli8commands10print_jsonNtNtNtCskaWsK9vzoU7_11vibeeye_app5tools6browse12BrowseOutputEB4_
FNDA:0,_RINvNtCs7sAqA4TJs1D_11vibeeye_cli8commands10print_jsonNtNtNtCskaWsK9vzoU7_11vibeeye_app5tools7extract13ExtractOutputEB4_
FNDA:0,_RINvNtCs7sAqA4TJs1D_11vibeeye_cli8commands10print_jsonNtNtNtCskaWsK9vzoU7_11vibeeye_app5tools8snapshot14SnapshotOutputEB4_
FNDA:0,_RNCNCNvNtCs7sAqA4TJs1D_11vibeeye_cli8commands13crawl_command00B7_
FNDA:0,_RNCNvNtCs7sAqA4TJs1D_11vibeeye_cli8commands13crawl_command0B5_
FNDA:0,_RNCNvNtCs7sAqA4TJs1D_11vibeeye_cli8commands3run0B5_
FNDA:0,_RNCNvNtCs7sAqA4TJs1D_11vibeeye_cli8commands7extract0B5_
FNDA:0,_RNCNvNtCs7sAqA4TJs1D_11vibeeye_cli8commands8navigate0B5_
FNDA:0,_RNCNvNtCs7sAqA4TJs1D_11vibeeye_cli8commands8snapshot0B5_
FNDA:0,_RNvNtCs7sAqA4TJs1D_11vibeeye_cli8commands13crawl_command
FNDA:0,_RNvNtCs7sAqA4TJs1D_11vibeeye_cli8commands7extract
FNDA:0,_RNvNtCs7sAqA4TJs1D_11vibeeye_cli8commands8navigate
FNDA:0,_RNvNtCs7sAqA4TJs1D_11vibeeye_cli8commands8snapshot
FNDA:0,_RNvNtCs7sAqA4TJs1D_11vibeeye_cli8commands3run
FNF:12
FNH:0
DA:18,0
DA:19,0
DA:20,0
DA:21,0
DA:22,0
DA:24,0
DA:25,0
DA:26,0
DA:27,0
DA:28,0
DA:29,0
DA:30,0
DA:31,0
DA:32,0
DA:33,0
DA:34,0
DA:35,0
DA:37,0
DA:38,0
DA:39,0
DA:40,0
DA:41,0
DA:42,0
DA:43,0
DA:44,0
DA:45,0
DA:46,0
DA:47,0
DA:48,0
DA:49,0
DA:50,0
DA:51,0
DA:54,0
DA:56,0
DA:57,0
DA:58,0
DA:59,0
DA:60,0
DA:61,0
DA:62,0
DA:63,0
DA:64,0
DA:65,0
DA:66,0
DA:68,0
DA:69,0
DA:70,0
DA:71,0
DA:72,0
DA:73,0
DA:74,0
DA:75,0
DA:77,0
DA:78,0
DA:79,0
DA:80,0
DA:81,0
DA:82,0
DA:83,0
DA:84,0
DA:86,0
DA:87,0
DA:91,0
DA:92,0
DA:95,0
DA:96,0
DA:97,0
DA:98,0
DA:99,0
DA:100,0
DA:101,0
DA:102,0
DA:103,0
DA:104,0
DA:105,0
DA:106,0
DA:107,0
DA:108,0
DA:109,0
DA:111,0
DA:112,0
DA:114,0
DA:115,0
DA:116,0
DA:117,0
DA:118,0
DA:119,0
DA:120,0
DA:121,0
DA:124,0
DA:125,0
DA:126,0
DA:127,0
DA:128,0
DA:129,0
DA:130,0
DA:131,0
DA:132,0
DA:133,0
DA:134,0
DA:135,0
DA:138,0
DA:142,0
DA:143,0
BRF:0
BRH:0
LF:110
LH:0
end_of_record
SF:/home/james/Projects/VibeEye/crates/vibeeye-cli/src/help_tree.rs
FN:248,_RINvNtCs8LYb7bINcrp_11vibeeye_cli9help_tree22generate_json_for_pathNtNtB4_3cli3CliECsbngXjuAIDwb_11parity_test
FN:140,_RINvNtCs8LYb7bINcrp_11vibeeye_cli9help_tree15parse_usize_argNCNvB2_15process_one_arg0EB4_
FN:153,_RINvNtCs8LYb7bINcrp_11vibeeye_cli9help_tree16parse_string_argNCNvB2_15process_one_args_0EB4_
FN:223,_RNCNvNtCs8LYb7bINcrp_11vibeeye_cli9help_tree11parse_usize0B5_
FN:216,_RNCNvNtCs8LYb7bINcrp_11vibeeye_cli9help_tree12parse_string0B5_
FN:483,_RNCNvNtCs8LYb7bINcrp_11vibeeye_cli9help_tree15command_to_json0B5_
FN:121,_RNCNvNtCs8LYb7bINcrp_11vibeeye_cli9help_tree15process_one_arg0B5_
FN:124,_RNCNvNtCs8LYb7bINcrp_11vibeeye_cli9help_tree15process_one_args_0B5_
FN:436,_RNCNvNtCs8LYb7bINcrp_11vibeeye_cli9help_tree16format_flag_line0B5_
FN:446,_RNCNvNtCs8LYb7bINcrp_11vibeeye_cli9help_tree16format_flag_lines_0B5_
FN:405,_RNCNvNtCs8LYb7bINcrp_11vibeeye_cli9help_tree19format_command_line0B5_
FN:412,_RNCNvNtCs8LYb7bINcrp_11vibeeye_cli9help_tree19format_command_lines_0B5_
FN:358,_RNCNvNtCs8LYb7bINcrp_11vibeeye_cli9help_tree19render_command_text0B5_
FN:367,_RNCNvNtCs8LYb7bINcrp_11vibeeye_cli9help_tree19render_command_texts0_0B5_
FN:368,_RNCNvNtCs8LYb7bINcrp_11vibeeye_cli9help_tree19render_command_texts1_0B5_
FN:369,_RNCNvNtCs8LYb7bINcrp_11vibeeye_cli9help_tree19render_command_texts2_0B5_
FN:359,_RNCNvNtCs8LYb7bINcrp_11vibeeye_cli9help_tree19render_command_texts_0B5_
FN:310,_RNCNvNtCs8LYb7bINcrp_11vibeeye_cli9help_tree22select_command_by_path0B5_
FN:89,_RNCNvNtCs8LYb7bINcrp_11vibeeye_cli9help_tree26parse_help_tree_invocation0B5_
FN:200,_RNvMs_NtCs8LYb7bINcrp_11vibeeye_cli9help_treeNtB4_10ParseState15into_invocation
FN:219,_RNvNtCs8LYb7bINcrp_11vibeeye_cli9help_tree11parse_usize
FN:213,_RNvNtCs8LYb7bINcrp_11vibeeye_cli9help_tree12parse_string
FN:540,_RNvNtCs8LYb7bINcrp_11vibeeye_cli9help_tree14option_to_json
FN:470,_RNvNtCs8LYb7bINcrp_11vibeeye_cli9help_tree15command_to_json
FN:324,_RNvNtCs8LYb7bINcrp_11vibeeye_cli9help_tree15command_to_text
FN:109,_RNvNtCs8LYb7bINcrp_11vibeeye_cli9help_tree15process_one_arg
FN:527,_RNvNtCs8LYb7bINcrp_11vibeeye_cli9help_tree15should_skip_arg
FN:417,_RNvNtCs8LYb7bINcrp_11vibeeye_cli9help_tree16format_flag_line
FN:460,_RNvNtCs8LYb7bINcrp_11vibeeye_cli9help_tree16next_tree_prefix
FN:177,_RNvNtCs8LYb7bINcrp_11vibeeye_cli9help_tree16parse_format_arg
FN:226,_RNvNtCs8LYb7bINcrp_11vibeeye_cli9help_tree17parse_tree_output
FN:235,_RNvNtCs8LYb7bINcrp_11vibeeye_cli9help_tree18parse_format_value
FN:532,_RNvNtCs8LYb7bINcrp_11vibeeye_cli9help_tree18positional_to_json
FN:561,_RNvNtCs8LYb7bINcrp_11vibeeye_cli9help_tree19collect_subcommands
FN:396,_RNvNtCs8LYb7bINcrp_11vibeeye_cli9help_tree19format_command_line
FN:503,_RNvNtCs8LYb7bINcrp_11vibeeye_cli9help_tree19insert_if_not_empty
FN:336,_RNvNtCs8LYb7bINcrp_11vibeeye_cli9help_tree19render_command_text
FN:509,_RNvNtCs8LYb7bINcrp_11vibeeye_cli9help_tree21collect_args_and_opts
FN:166,_RNvNtCs8LYb7bINcrp_11vibeeye_cli9help_tree21parse_tree_output_arg
FN:303,_RNvNtCs8LYb7bINcrp_11vibeeye_cli9help_tree22select_command_by_path
FN:592,_RNvNtCs8LYb7bINcrp_11vibeeye_cli9help_tree22should_skip_subcommand
FN:451,_RNvNtCs8LYb7bINcrp_11vibeeye_cli9help_tree26pad_and_append_description
FN:86,_RNvNtCs8LYb7bINcrp_11vibeeye_cli9help_tree26parse_help_tree_invocation
FN:73,_RNvXNtCs8LYb7bINcrp_11vibeeye_cli9help_treeNtB2_12HelpTreeOptsNtNtCs8nPosuWgJFh_4core7default7Default7default
FN:601,_RNvNtNtCs3VzpdYZ24vU_8vibe_eye9help_tree5testss_23test_parse_no_help_tree
FN:773,_RNvNtNtCs3VzpdYZ24vU_8vibe_eye9help_tree5testss_24test_insert_if_not_empty
FN:665,_RNvNtNtCs3VzpdYZ24vU_8vibe_eye9help_tree5testss_24test_parse_invalid_depth
FN:616,_RNvNtNtCs3VzpdYZ24vU_8vibe_eye9help_tree5testss_25test_parse_help_tree_json
FN:658,_RNvNtNtCs3VzpdYZ24vU_8vibe_eye9help_tree5testss_25test_parse_help_tree_path
FN:686,_RNvNtNtCs3VzpdYZ24vU_8vibe_eye9help_tree5testss_26test_command_to_json_basic
FN:608,_RNvNtNtCs3VzpdYZ24vU_8vibe_eye9help_tree5testss_26test_parse_help_tree_basic
FN:627,_RNvNtNtCs3VzpdYZ24vU_8vibe_eye9help_tree5testss_26test_parse_help_tree_depth
FN:634,_RNvNtNtCs3VzpdYZ24vU_8vibe_eye9help_tree5testss_27test_parse_help_tree_ignore
FN:696,_RNvNtNtCs3VzpdYZ24vU_8vibe_eye9help_tree5testss_30test_command_to_json_with_args
FN:645,_RNvNtNtCs3VzpdYZ24vU_8vibe_eye9help_tree5testss_30test_parse_help_tree_all_flags
FN:736,_RNvNtNtCs3VzpdYZ24vU_8vibe_eye9help_tree5testss_31test_command_to_json_omit_flags
FN:798,_RNvNtNtCs3VzpdYZ24vU_8vibe_eye9help_tree5testss_31test_format_flag_line_long_only
FN:744,_RNvNtNtCs3VzpdYZ24vU_8vibe_eye9help_tree5testss_32test_collect_args_and_opts_empty
FN:728,_RNvNtNtCs3VzpdYZ24vU_8vibe_eye9help_tree5testss_32test_command_to_json_depth_limit
FN:675,_RNvNtNtCs3VzpdYZ24vU_8vibe_eye9help_tree5testss_32test_select_command_by_path_root
FN:832,_RNvNtNtCs3VzpdYZ24vU_8vibe_eye9help_tree5testss_33test_format_flag_line_id_fallback
FN:782,_RNvNtNtCs3VzpdYZ24vU_8vibe_eye9help_tree5testss_36test_format_flag_line_short_and_long
FN:753,_RNvNtNtCs3VzpdYZ24vU_8vibe_eye9help_tree5testss_37test_collect_args_and_opts_positional
FN:762,_RNvNtNtCs3VzpdYZ24vU_8vibe_eye9help_tree5testss_37test_collect_args_and_opts_skips_help
FN:718,_RNvNtNtCs3VzpdYZ24vU_8vibe_eye9help_tree5testss_37test_command_to_json_with_subcommands
FN:814,_RNvNtNtCs3VzpdYZ24vU_8vibe_eye9help_tree5testss_37test_format_flag_line_with_value_hint
FN:273,_RINvNtCs3VzpdYZ24vU_8vibe_eye9help_tree12run_for_pathpEB4_
FN:248,_RINvNtCs3VzpdYZ24vU_8vibe_eye9help_tree22generate_json_for_pathpEB4_
FN:405,_RNCNvNtCs3VzpdYZ24vU_8vibe_eye9help_tree19format_command_line0B5_
FN:412,_RNCNvNtCs3VzpdYZ24vU_8vibe_eye9help_tree19format_command_lines_0B5_
FN:358,_RNCNvNtCs3VzpdYZ24vU_8vibe_eye9help_tree19render_command_text0B5_
FN:367,_RNCNvNtCs3VzpdYZ24vU_8vibe_eye9help_tree19render_command_texts0_0B5_
FN:368,_RNCNvNtCs3VzpdYZ24vU_8vibe_eye9help_tree19render_command_texts1_0B5_
FN:369,_RNCNvNtCs3VzpdYZ24vU_8vibe_eye9help_tree19render_command_texts2_0B5_
FN:359,_RNCNvNtCs3VzpdYZ24vU_8vibe_eye9help_tree19render_command_texts_0B5_
FN:324,_RNvNtCs3VzpdYZ24vU_8vibe_eye9help_tree15command_to_text
FN:460,_RNvNtCs3VzpdYZ24vU_8vibe_eye9help_tree16next_tree_prefix
FN:396,_RNvNtCs3VzpdYZ24vU_8vibe_eye9help_tree19format_command_line
FN:336,_RNvNtCs3VzpdYZ24vU_8vibe_eye9help_tree19render_command_text
FN:73,_RNvXNtCs3VzpdYZ24vU_8vibe_eye9help_treeNtB2_12HelpTreeOptsNtNtCs8nPosuWgJFh_4core7default7Default7default
FN:200,_RNvMs_NtCs3VzpdYZ24vU_8vibe_eye9help_treeNtB4_10ParseState15into_invocation
FN:219,_RNvNtCs3VzpdYZ24vU_8vibe_eye9help_tree11parse_usize
FN:213,_RNvNtCs3VzpdYZ24vU_8vibe_eye9help_tree12parse_string
FN:540,_RNvNtCs3VzpdYZ24vU_8vibe_eye9help_tree14option_to_json
FN:470,_RNvNtCs3VzpdYZ24vU_8vibe_eye9help_tree15command_to_json
FN:109,_RNvNtCs3VzpdYZ24vU_8vibe_eye9help_tree15process_one_arg
FN:527,_RNvNtCs3VzpdYZ24vU_8vibe_eye9help_tree15should_skip_arg
FN:417,_RNvNtCs3VzpdYZ24vU_8vibe_eye9help_tree16format_flag_line
FN:177,_RNvNtCs3VzpdYZ24vU_8vibe_eye9help_tree16parse_format_arg
FN:226,_RNvNtCs3VzpdYZ24vU_8vibe_eye9help_tree17parse_tree_output
FN:235,_RNvNtCs3VzpdYZ24vU_8vibe_eye9help_tree18parse_format_value
FN:532,_RNvNtCs3VzpdYZ24vU_8vibe_eye9help_tree18positional_to_json
FN:561,_RNvNtCs3VzpdYZ24vU_8vibe_eye9help_tree19collect_subcommands
FN:503,_RNvNtCs3VzpdYZ24vU_8vibe_eye9help_tree19insert_if_not_empty
FN:509,_RNvNtCs3VzpdYZ24vU_8vibe_eye9help_tree21collect_args_and_opts
FN:166,_RNvNtCs3VzpdYZ24vU_8vibe_eye9help_tree21parse_tree_output_arg
FN:303,_RNvNtCs3VzpdYZ24vU_8vibe_eye9help_tree22select_command_by_path
FN:592,_RNvNtCs3VzpdYZ24vU_8vibe_eye9help_tree22should_skip_subcommand
FN:451,_RNvNtCs3VzpdYZ24vU_8vibe_eye9help_tree26pad_and_append_description
FN:86,_RNvNtCs3VzpdYZ24vU_8vibe_eye9help_tree26parse_help_tree_invocation
FN:140,_RINvNtCs3VzpdYZ24vU_8vibe_eye9help_tree15parse_usize_argNCNvB2_15process_one_arg0EB4_
FN:153,_RINvNtCs3VzpdYZ24vU_8vibe_eye9help_tree16parse_string_argNCNvB2_15process_one_args_0EB4_
FN:223,_RNCNvNtCs3VzpdYZ24vU_8vibe_eye9help_tree11parse_usize0B5_
FN:216,_RNCNvNtCs3VzpdYZ24vU_8vibe_eye9help_tree12parse_string0B5_
FN:483,_RNCNvNtCs3VzpdYZ24vU_8vibe_eye9help_tree15command_to_json0B5_
FN:121,_RNCNvNtCs3VzpdYZ24vU_8vibe_eye9help_tree15process_one_arg0B5_
FN:124,_RNCNvNtCs3VzpdYZ24vU_8vibe_eye9help_tree15process_one_args_0B5_
FN:436,_RNCNvNtCs3VzpdYZ24vU_8vibe_eye9help_tree16format_flag_line0B5_
FN:446,_RNCNvNtCs3VzpdYZ24vU_8vibe_eye9help_tree16format_flag_lines_0B5_
FN:310,_RNCNvNtCs3VzpdYZ24vU_8vibe_eye9help_tree22select_command_by_path0B5_
FN:89,_RNCNvNtCs3VzpdYZ24vU_8vibe_eye9help_tree26parse_help_tree_invocation0B5_
FN:273,_RINvNtCsfAYyu10MD3d_8vibe_eye9help_tree12run_for_pathNtNtB4_3cli3CliEB4_
FN:140,_RINvNtCsfAYyu10MD3d_8vibe_eye9help_tree15parse_usize_argNCNvB2_15process_one_arg0EB4_
FN:153,_RINvNtCsfAYyu10MD3d_8vibe_eye9help_tree16parse_string_argNCNvB2_15process_one_args_0EB4_
FN:248,_RINvNtCsfAYyu10MD3d_8vibe_eye9help_tree22generate_json_for_pathNtNtB4_3cli3CliEB4_
FN:223,_RNCNvNtCsfAYyu10MD3d_8vibe_eye9help_tree11parse_usize0B5_
FN:216,_RNCNvNtCsfAYyu10MD3d_8vibe_eye9help_tree12parse_string0B5_
FN:483,_RNCNvNtCsfAYyu10MD3d_8vibe_eye9help_tree15command_to_json0B5_
FN:121,_RNCNvNtCsfAYyu10MD3d_8vibe_eye9help_tree15process_one_arg0B5_
FN:124,_RNCNvNtCsfAYyu10MD3d_8vibe_eye9help_tree15process_one_args_0B5_
FN:436,_RNCNvNtCsfAYyu10MD3d_8vibe_eye9help_tree16format_flag_line0B5_
FN:446,_RNCNvNtCsfAYyu10MD3d_8vibe_eye9help_tree16format_flag_lines_0B5_
FN:405,_RNCNvNtCsfAYyu10MD3d_8vibe_eye9help_tree19format_command_line0B5_
FN:412,_RNCNvNtCsfAYyu10MD3d_8vibe_eye9help_tree19format_command_lines_0B5_
FN:358,_RNCNvNtCsfAYyu10MD3d_8vibe_eye9help_tree19render_command_text0B5_
FN:367,_RNCNvNtCsfAYyu10MD3d_8vibe_eye9help_tree19render_command_texts0_0B5_
FN:368,_RNCNvNtCsfAYyu10MD3d_8vibe_eye9help_tree19render_command_texts1_0B5_
FN:369,_RNCNvNtCsfAYyu10MD3d_8vibe_eye9help_tree19render_command_texts2_0B5_
FN:359,_RNCNvNtCsfAYyu10MD3d_8vibe_eye9help_tree19render_command_texts_0B5_
FN:310,_RNCNvNtCsfAYyu10MD3d_8vibe_eye9help_tree22select_command_by_path0B5_
FN:89,_RNCNvNtCsfAYyu10MD3d_8vibe_eye9help_tree26parse_help_tree_invocation0B5_
FN:73,_RNvXNtCsfAYyu10MD3d_8vibe_eye9help_treeNtB2_12HelpTreeOptsNtNtCs8nPosuWgJFh_4core7default7Default7default
FN:200,_RNvMs_NtCsfAYyu10MD3d_8vibe_eye9help_treeNtB4_10ParseState15into_invocation
FN:219,_RNvNtCsfAYyu10MD3d_8vibe_eye9help_tree11parse_usize
FN:213,_RNvNtCsfAYyu10MD3d_8vibe_eye9help_tree12parse_string
FN:540,_RNvNtCsfAYyu10MD3d_8vibe_eye9help_tree14option_to_json
FN:470,_RNvNtCsfAYyu10MD3d_8vibe_eye9help_tree15command_to_json
FN:324,_RNvNtCsfAYyu10MD3d_8vibe_eye9help_tree15command_to_text
FN:109,_RNvNtCsfAYyu10MD3d_8vibe_eye9help_tree15process_one_arg
FN:527,_RNvNtCsfAYyu10MD3d_8vibe_eye9help_tree15should_skip_arg
FN:417,_RNvNtCsfAYyu10MD3d_8vibe_eye9help_tree16format_flag_line
FN:460,_RNvNtCsfAYyu10MD3d_8vibe_eye9help_tree16next_tree_prefix
FN:177,_RNvNtCsfAYyu10MD3d_8vibe_eye9help_tree16parse_format_arg
FN:226,_RNvNtCsfAYyu10MD3d_8vibe_eye9help_tree17parse_tree_output
FN:235,_RNvNtCsfAYyu10MD3d_8vibe_eye9help_tree18parse_format_value
FN:532,_RNvNtCsfAYyu10MD3d_8vibe_eye9help_tree18positional_to_json
FN:561,_RNvNtCsfAYyu10MD3d_8vibe_eye9help_tree19collect_subcommands
FN:396,_RNvNtCsfAYyu10MD3d_8vibe_eye9help_tree19format_command_line
FN:503,_RNvNtCsfAYyu10MD3d_8vibe_eye9help_tree19insert_if_not_empty
FN:336,_RNvNtCsfAYyu10MD3d_8vibe_eye9help_tree19render_command_text
FN:509,_RNvNtCsfAYyu10MD3d_8vibe_eye9help_tree21collect_args_and_opts
FN:166,_RNvNtCsfAYyu10MD3d_8vibe_eye9help_tree21parse_tree_output_arg
FN:303,_RNvNtCsfAYyu10MD3d_8vibe_eye9help_tree22select_command_by_path
FN:592,_RNvNtCsfAYyu10MD3d_8vibe_eye9help_tree22should_skip_subcommand
FN:451,_RNvNtCsfAYyu10MD3d_8vibe_eye9help_tree26pad_and_append_description
FN:86,_RNvNtCsfAYyu10MD3d_8vibe_eye9help_tree26parse_help_tree_invocation
FN:140,_RINvNtCs7sAqA4TJs1D_11vibeeye_cli9help_tree15parse_usize_argNCNvB2_15process_one_arg0EB4_
FN:153,_RINvNtCs7sAqA4TJs1D_11vibeeye_cli9help_tree16parse_string_argNCNvB2_15process_one_args_0EB4_
FN:223,_RNCNvNtCs7sAqA4TJs1D_11vibeeye_cli9help_tree11parse_usize0B5_
FN:216,_RNCNvNtCs7sAqA4TJs1D_11vibeeye_cli9help_tree12parse_string0B5_
FN:483,_RNCNvNtCs7sAqA4TJs1D_11vibeeye_cli9help_tree15command_to_json0B5_
FN:121,_RNCNvNtCs7sAqA4TJs1D_11vibeeye_cli9help_tree15process_one_arg0B5_
FN:124,_RNCNvNtCs7sAqA4TJs1D_11vibeeye_cli9help_tree15process_one_args_0B5_
FN:436,_RNCNvNtCs7sAqA4TJs1D_11vibeeye_cli9help_tree16format_flag_line0B5_
FN:446,_RNCNvNtCs7sAqA4TJs1D_11vibeeye_cli9help_tree16format_flag_lines_0B5_
FN:310,_RNCNvNtCs7sAqA4TJs1D_11vibeeye_cli9help_tree22select_command_by_path0B5_
FN:89,_RNCNvNtCs7sAqA4TJs1D_11vibeeye_cli9help_tree26parse_help_tree_invocation0B5_
FN:601,_RNvNtNtCs7sAqA4TJs1D_11vibeeye_cli9help_tree5testss_23test_parse_no_help_tree
FN:773,_RNvNtNtCs7sAqA4TJs1D_11vibeeye_cli9help_tree5testss_24test_insert_if_not_empty
FN:665,_RNvNtNtCs7sAqA4TJs1D_11vibeeye_cli9help_tree5testss_24test_parse_invalid_depth
FN:616,_RNvNtNtCs7sAqA4TJs1D_11vibeeye_cli9help_tree5testss_25test_parse_help_tree_json
FN:658,_RNvNtNtCs7sAqA4TJs1D_11vibeeye_cli9help_tree5testss_25test_parse_help_tree_path
FN:686,_RNvNtNtCs7sAqA4TJs1D_11vibeeye_cli9help_tree5testss_26test_command_to_json_basic
FN:608,_RNvNtNtCs7sAqA4TJs1D_11vibeeye_cli9help_tree5testss_26test_parse_help_tree_basic
FN:627,_RNvNtNtCs7sAqA4TJs1D_11vibeeye_cli9help_tree5testss_26test_parse_help_tree_depth
FN:634,_RNvNtNtCs7sAqA4TJs1D_11vibeeye_cli9help_tree5testss_27test_parse_help_tree_ignore
FN:696,_RNvNtNtCs7sAqA4TJs1D_11vibeeye_cli9help_tree5testss_30test_command_to_json_with_args
FN:645,_RNvNtNtCs7sAqA4TJs1D_11vibeeye_cli9help_tree5testss_30test_parse_help_tree_all_flags
FN:736,_RNvNtNtCs7sAqA4TJs1D_11vibeeye_cli9help_tree5testss_31test_command_to_json_omit_flags
FN:798,_RNvNtNtCs7sAqA4TJs1D_11vibeeye_cli9help_tree5testss_31test_format_flag_line_long_only
FN:744,_RNvNtNtCs7sAqA4TJs1D_11vibeeye_cli9help_tree5testss_32test_collect_args_and_opts_empty
FN:728,_RNvNtNtCs7sAqA4TJs1D_11vibeeye_cli9help_tree5testss_32test_command_to_json_depth_limit
FN:675,_RNvNtNtCs7sAqA4TJs1D_11vibeeye_cli9help_tree5testss_32test_select_command_by_path_root
FN:832,_RNvNtNtCs7sAqA4TJs1D_11vibeeye_cli9help_tree5testss_33test_format_flag_line_id_fallback
FN:782,_RNvNtNtCs7sAqA4TJs1D_11vibeeye_cli9help_tree5testss_36test_format_flag_line_short_and_long
FN:753,_RNvNtNtCs7sAqA4TJs1D_11vibeeye_cli9help_tree5testss_37test_collect_args_and_opts_positional
FN:762,_RNvNtNtCs7sAqA4TJs1D_11vibeeye_cli9help_tree5testss_37test_collect_args_and_opts_skips_help
FN:718,_RNvNtNtCs7sAqA4TJs1D_11vibeeye_cli9help_tree5testss_37test_command_to_json_with_subcommands
FN:814,_RNvNtNtCs7sAqA4TJs1D_11vibeeye_cli9help_tree5testss_37test_format_flag_line_with_value_hint
FN:200,_RNvMs_NtCs7sAqA4TJs1D_11vibeeye_cli9help_treeNtB4_10ParseState15into_invocation
FN:219,_RNvNtCs7sAqA4TJs1D_11vibeeye_cli9help_tree11parse_usize
FN:213,_RNvNtCs7sAqA4TJs1D_11vibeeye_cli9help_tree12parse_string
FN:540,_RNvNtCs7sAqA4TJs1D_11vibeeye_cli9help_tree14option_to_json
FN:470,_RNvNtCs7sAqA4TJs1D_11vibeeye_cli9help_tree15command_to_json
FN:109,_RNvNtCs7sAqA4TJs1D_11vibeeye_cli9help_tree15process_one_arg
FN:527,_RNvNtCs7sAqA4TJs1D_11vibeeye_cli9help_tree15should_skip_arg
FN:417,_RNvNtCs7sAqA4TJs1D_11vibeeye_cli9help_tree16format_flag_line
FN:177,_RNvNtCs7sAqA4TJs1D_11vibeeye_cli9help_tree16parse_format_arg
FN:226,_RNvNtCs7sAqA4TJs1D_11vibeeye_cli9help_tree17parse_tree_output
FN:235,_RNvNtCs7sAqA4TJs1D_11vibeeye_cli9help_tree18parse_format_value
FN:532,_RNvNtCs7sAqA4TJs1D_11vibeeye_cli9help_tree18positional_to_json
FN:561,_RNvNtCs7sAqA4TJs1D_11vibeeye_cli9help_tree19collect_subcommands
FN:503,_RNvNtCs7sAqA4TJs1D_11vibeeye_cli9help_tree19insert_if_not_empty
FN:509,_RNvNtCs7sAqA4TJs1D_11vibeeye_cli9help_tree21collect_args_and_opts
FN:166,_RNvNtCs7sAqA4TJs1D_11vibeeye_cli9help_tree21parse_tree_output_arg
FN:303,_RNvNtCs7sAqA4TJs1D_11vibeeye_cli9help_tree22select_command_by_path
FN:592,_RNvNtCs7sAqA4TJs1D_11vibeeye_cli9help_tree22should_skip_subcommand
FN:451,_RNvNtCs7sAqA4TJs1D_11vibeeye_cli9help_tree26pad_and_append_description
FN:86,_RNvNtCs7sAqA4TJs1D_11vibeeye_cli9help_tree26parse_help_tree_invocation
FN:273,_RINvNtCs7sAqA4TJs1D_11vibeeye_cli9help_tree12run_for_pathpEB4_
FN:248,_RINvNtCs7sAqA4TJs1D_11vibeeye_cli9help_tree22generate_json_for_pathpEB4_
FN:405,_RNCNvNtCs7sAqA4TJs1D_11vibeeye_cli9help_tree19format_command_line0B5_
FN:412,_RNCNvNtCs7sAqA4TJs1D_11vibeeye_cli9help_tree19format_command_lines_0B5_
FN:358,_RNCNvNtCs7sAqA4TJs1D_11vibeeye_cli9help_tree19render_command_text0B5_
FN:367,_RNCNvNtCs7sAqA4TJs1D_11vibeeye_cli9help_tree19render_command_texts0_0B5_
FN:368,_RNCNvNtCs7sAqA4TJs1D_11vibeeye_cli9help_tree19render_command_texts1_0B5_
FN:369,_RNCNvNtCs7sAqA4TJs1D_11vibeeye_cli9help_tree19render_command_texts2_0B5_
FN:359,_RNCNvNtCs7sAqA4TJs1D_11vibeeye_cli9help_tree19render_command_texts_0B5_
FN:324,_RNvNtCs7sAqA4TJs1D_11vibeeye_cli9help_tree15command_to_text
FN:460,_RNvNtCs7sAqA4TJs1D_11vibeeye_cli9help_tree16next_tree_prefix
FN:396,_RNvNtCs7sAqA4TJs1D_11vibeeye_cli9help_tree19format_command_line
FN:336,_RNvNtCs7sAqA4TJs1D_11vibeeye_cli9help_tree19render_command_text
FN:73,_RNvXNtCs7sAqA4TJs1D_11vibeeye_cli9help_treeNtB2_12HelpTreeOptsNtNtCs8nPosuWgJFh_4core7default7Default7default
FNDA:1,_RINvNtCs8LYb7bINcrp_11vibeeye_cli9help_tree22generate_json_for_pathNtNtB4_3cli3CliECsbngXjuAIDwb_11parity_test
FNDA:0,_RINvNtCs8LYb7bINcrp_11vibeeye_cli9help_tree15parse_usize_argNCNvB2_15process_one_arg0EB4_
FNDA:0,_RINvNtCs8LYb7bINcrp_11vibeeye_cli9help_tree16parse_string_argNCNvB2_15process_one_args_0EB4_
FNDA:0,_RNCNvNtCs8LYb7bINcrp_11vibeeye_cli9help_tree11parse_usize0B5_
FNDA:0,_RNCNvNtCs8LYb7bINcrp_11vibeeye_cli9help_tree12parse_string0B5_
FNDA:5,_RNCNvNtCs8LYb7bINcrp_11vibeeye_cli9help_tree15command_to_json0B5_
FNDA:0,_RNCNvNtCs8LYb7bINcrp_11vibeeye_cli9help_tree15process_one_arg0B5_
FNDA:0,_RNCNvNtCs8LYb7bINcrp_11vibeeye_cli9help_tree15process_one_args_0B5_
FNDA:0,_RNCNvNtCs8LYb7bINcrp_11vibeeye_cli9help_tree16format_flag_line0B5_
FNDA:0,_RNCNvNtCs8LYb7bINcrp_11vibeeye_cli9help_tree16format_flag_lines_0B5_
FNDA:0,_RNCNvNtCs8LYb7bINcrp_11vibeeye_cli9help_tree19format_command_line0B5_
FNDA:0,_RNCNvNtCs8LYb7bINcrp_11vibeeye_cli9help_tree19format_command_lines_0B5_
FNDA:0,_RNCNvNtCs8LYb7bINcrp_11vibeeye_cli9help_tree19render_command_text0B5_
FNDA:0,_RNCNvNtCs8LYb7bINcrp_11vibeeye_cli9help_tree19render_command_texts0_0B5_
FNDA:0,_RNCNvNtCs8LYb7bINcrp_11vibeeye_cli9help_tree19render_command_texts1_0B5_
FNDA:0,_RNCNvNtCs8LYb7bINcrp_11vibeeye_cli9help_tree19render_command_texts2_0B5_
FNDA:0,_RNCNvNtCs8LYb7bINcrp_11vibeeye_cli9help_tree19render_command_texts_0B5_
FNDA:0,_RNCNvNtCs8LYb7bINcrp_11vibeeye_cli9help_tree22select_command_by_path0B5_
FNDA:0,_RNCNvNtCs8LYb7bINcrp_11vibeeye_cli9help_tree26parse_help_tree_invocation0B5_
FNDA:0,_RNvMs_NtCs8LYb7bINcrp_11vibeeye_cli9help_treeNtB4_10ParseState15into_invocation
FNDA:0,_RNvNtCs8LYb7bINcrp_11vibeeye_cli9help_tree11parse_usize
FNDA:0,_RNvNtCs8LYb7bINcrp_11vibeeye_cli9help_tree12parse_string
FNDA:18,_RNvNtCs8LYb7bINcrp_11vibeeye_cli9help_tree14option_to_json
FNDA:5,_RNvNtCs8LYb7bINcrp_11vibeeye_cli9help_tree15command_to_json
FNDA:0,_RNvNtCs8LYb7bINcrp_11vibeeye_cli9help_tree15command_to_text
FNDA:0,_RNvNtCs8LYb7bINcrp_11vibeeye_cli9help_tree15process_one_arg
FNDA:28,_RNvNtCs8LYb7bINcrp_11vibeeye_cli9help_tree15should_skip_arg
FNDA:0,_RNvNtCs8LYb7bINcrp_11vibeeye_cli9help_tree16format_flag_line
FNDA:0,_RNvNtCs8LYb7bINcrp_11vibeeye_cli9help_tree16next_tree_prefix
FNDA:0,_RNvNtCs8LYb7bINcrp_11vibeeye_cli9help_tree16parse_format_arg
FNDA:0,_RNvNtCs8LYb7bINcrp_11vibeeye_cli9help_tree17parse_tree_output
FNDA:0,_RNvNtCs8LYb7bINcrp_11vibeeye_cli9help_tree18parse_format_value
FNDA:4,_RNvNtCs8LYb7bINcrp_11vibeeye_cli9help_tree18positional_to_json
FNDA:5,_RNvNtCs8LYb7bINcrp_11vibeeye_cli9help_tree19collect_subcommands
FNDA:0,_RNvNtCs8LYb7bINcrp_11vibeeye_cli9help_tree19format_command_line
FNDA:15,_RNvNtCs8LYb7bINcrp_11vibeeye_cli9help_tree19insert_if_not_empty
FNDA:0,_RNvNtCs8LYb7bINcrp_11vibeeye_cli9help_tree19render_command_text
FNDA:5,_RNvNtCs8LYb7bINcrp_11vibeeye_cli9help_tree21collect_args_and_opts
FNDA:0,_RNvNtCs8LYb7bINcrp_11vibeeye_cli9help_tree21parse_tree_output_arg
FNDA:1,_RNvNtCs8LYb7bINcrp_11vibeeye_cli9help_tree22select_command_by_path
FNDA:5,_RNvNtCs8LYb7bINcrp_11vibeeye_cli9help_tree22should_skip_subcommand
FNDA:0,_RNvNtCs8LYb7bINcrp_11vibeeye_cli9help_tree26pad_and_append_description
FNDA:0,_RNvNtCs8LYb7bINcrp_11vibeeye_cli9help_tree26parse_help_tree_invocation
FNDA:0,_RNvXNtCs8LYb7bINcrp_11vibeeye_cli9help_treeNtB2_12HelpTreeOptsNtNtCs8nPosuWgJFh_4core7default7Default7default
FNDA:1,_RNvNtNtCs3VzpdYZ24vU_8vibe_eye9help_tree5testss_23test_parse_no_help_tree
FNDA:1,_RNvNtNtCs3VzpdYZ24vU_8vibe_eye9help_tree5testss_24test_insert_if_not_empty
FNDA:1,_RNvNtNtCs3VzpdYZ24vU_8vibe_eye9help_tree5testss_24test_parse_invalid_depth
FNDA:1,_RNvNtNtCs3VzpdYZ24vU_8vibe_eye9help_tree5testss_25test_parse_help_tree_json
FNDA:1,_RNvNtNtCs3VzpdYZ24vU_8vibe_eye9help_tree5testss_25test_parse_help_tree_path
FNDA:1,_RNvNtNtCs3VzpdYZ24vU_8vibe_eye9help_tree5testss_26test_command_to_json_basic
FNDA:1,_RNvNtNtCs3VzpdYZ24vU_8vibe_eye9help_tree5testss_26test_parse_help_tree_basic
FNDA:1,_RNvNtNtCs3VzpdYZ24vU_8vibe_eye9help_tree5testss_26test_parse_help_tree_depth
FNDA:1,_RNvNtNtCs3VzpdYZ24vU_8vibe_eye9help_tree5testss_27test_parse_help_tree_ignore
FNDA:1,_RNvNtNtCs3VzpdYZ24vU_8vibe_eye9help_tree5testss_30test_command_to_json_with_args
FNDA:1,_RNvNtNtCs3VzpdYZ24vU_8vibe_eye9help_tree5testss_30test_parse_help_tree_all_flags
FNDA:1,_RNvNtNtCs3VzpdYZ24vU_8vibe_eye9help_tree5testss_31test_command_to_json_omit_flags
FNDA:1,_RNvNtNtCs3VzpdYZ24vU_8vibe_eye9help_tree5testss_31test_format_flag_line_long_only
FNDA:1,_RNvNtNtCs3VzpdYZ24vU_8vibe_eye9help_tree5testss_32test_collect_args_and_opts_empty
FNDA:1,_RNvNtNtCs3VzpdYZ24vU_8vibe_eye9help_tree5testss_32test_command_to_json_depth_limit
FNDA:1,_RNvNtNtCs3VzpdYZ24vU_8vibe_eye9help_tree5testss_32test_select_command_by_path_root
FNDA:1,_RNvNtNtCs3VzpdYZ24vU_8vibe_eye9help_tree5testss_33test_format_flag_line_id_fallback
FNDA:1,_RNvNtNtCs3VzpdYZ24vU_8vibe_eye9help_tree5testss_36test_format_flag_line_short_and_long
FNDA:1,_RNvNtNtCs3VzpdYZ24vU_8vibe_eye9help_tree5testss_37test_collect_args_and_opts_positional
FNDA:1,_RNvNtNtCs3VzpdYZ24vU_8vibe_eye9help_tree5testss_37test_collect_args_and_opts_skips_help
FNDA:1,_RNvNtNtCs3VzpdYZ24vU_8vibe_eye9help_tree5testss_37test_command_to_json_with_subcommands
FNDA:1,_RNvNtNtCs3VzpdYZ24vU_8vibe_eye9help_tree5testss_37test_format_flag_line_with_value_hint
FNDA:0,_RINvNtCs3VzpdYZ24vU_8vibe_eye9help_tree12run_for_pathpEB4_
FNDA:0,_RINvNtCs3VzpdYZ24vU_8vibe_eye9help_tree22generate_json_for_pathpEB4_
FNDA:0,_RNCNvNtCs3VzpdYZ24vU_8vibe_eye9help_tree19format_command_line0B5_
FNDA:0,_RNCNvNtCs3VzpdYZ24vU_8vibe_eye9help_tree19format_command_lines_0B5_
FNDA:0,_RNCNvNtCs3VzpdYZ24vU_8vibe_eye9help_tree19render_command_text0B5_
FNDA:0,_RNCNvNtCs3VzpdYZ24vU_8vibe_eye9help_tree19render_command_texts0_0B5_
FNDA:0,_RNCNvNtCs3VzpdYZ24vU_8vibe_eye9help_tree19render_command_texts1_0B5_
FNDA:0,_RNCNvNtCs3VzpdYZ24vU_8vibe_eye9help_tree19render_command_texts2_0B5_
FNDA:0,_RNCNvNtCs3VzpdYZ24vU_8vibe_eye9help_tree19render_command_texts_0B5_
FNDA:0,_RNvNtCs3VzpdYZ24vU_8vibe_eye9help_tree15command_to_text
FNDA:0,_RNvNtCs3VzpdYZ24vU_8vibe_eye9help_tree16next_tree_prefix
FNDA:0,_RNvNtCs3VzpdYZ24vU_8vibe_eye9help_tree19format_command_line
FNDA:0,_RNvNtCs3VzpdYZ24vU_8vibe_eye9help_tree19render_command_text
FNDA:0,_RNvXNtCs3VzpdYZ24vU_8vibe_eye9help_treeNtB2_12HelpTreeOptsNtNtCs8nPosuWgJFh_4core7default7Default7default
FNDA:6,_RNvMs_NtCs3VzpdYZ24vU_8vibe_eye9help_treeNtB4_10ParseState15into_invocation
FNDA:2,_RNvNtCs3VzpdYZ24vU_8vibe_eye9help_tree11parse_usize
FNDA:5,_RNvNtCs3VzpdYZ24vU_8vibe_eye9help_tree12parse_string
FNDA:1,_RNvNtCs3VzpdYZ24vU_8vibe_eye9help_tree14option_to_json
FNDA:6,_RNvNtCs3VzpdYZ24vU_8vibe_eye9help_tree15command_to_json
FNDA:14,_RNvNtCs3VzpdYZ24vU_8vibe_eye9help_tree15process_one_arg
FNDA:6,_RNvNtCs3VzpdYZ24vU_8vibe_eye9help_tree15should_skip_arg
FNDA:4,_RNvNtCs3VzpdYZ24vU_8vibe_eye9help_tree16format_flag_line
FNDA:1,_RNvNtCs3VzpdYZ24vU_8vibe_eye9help_tree16parse_format_arg
FNDA:1,_RNvNtCs3VzpdYZ24vU_8vibe_eye9help_tree17parse_tree_output
FNDA:1,_RNvNtCs3VzpdYZ24vU_8vibe_eye9help_tree18parse_format_value
FNDA:3,_RNvNtCs3VzpdYZ24vU_8vibe_eye9help_tree18positional_to_json
FNDA:6,_RNvNtCs3VzpdYZ24vU_8vibe_eye9help_tree19collect_subcommands
FNDA:20,_RNvNtCs3VzpdYZ24vU_8vibe_eye9help_tree19insert_if_not_empty
FNDA:9,_RNvNtCs3VzpdYZ24vU_8vibe_eye9help_tree21collect_args_and_opts
FNDA:1,_RNvNtCs3VzpdYZ24vU_8vibe_eye9help_tree21parse_tree_output_arg
FNDA:1,_RNvNtCs3VzpdYZ24vU_8vibe_eye9help_tree22select_command_by_path
FNDA:1,_RNvNtCs3VzpdYZ24vU_8vibe_eye9help_tree22should_skip_subcommand
FNDA:4,_RNvNtCs3VzpdYZ24vU_8vibe_eye9help_tree26pad_and_append_description
FNDA:8,_RNvNtCs3VzpdYZ24vU_8vibe_eye9help_tree26parse_help_tree_invocation
FNDA:2,_RINvNtCs3VzpdYZ24vU_8vibe_eye9help_tree15parse_usize_argNCNvB2_15process_one_arg0EB4_
FNDA:1,_RINvNtCs3VzpdYZ24vU_8vibe_eye9help_tree16parse_string_argNCNvB2_15process_one_args_0EB4_
FNDA:1,_RNCNvNtCs3VzpdYZ24vU_8vibe_eye9help_tree11parse_usize0B5_
FNDA:0,_RNCNvNtCs3VzpdYZ24vU_8vibe_eye9help_tree12parse_string0B5_
FNDA:2,_RNCNvNtCs3VzpdYZ24vU_8vibe_eye9help_tree15command_to_json0B5_
FNDA:1,_RNCNvNtCs3VzpdYZ24vU_8vibe_eye9help_tree15process_one_arg0B5_
FNDA:1,_RNCNvNtCs3VzpdYZ24vU_8vibe_eye9help_tree15process_one_args_0B5_
FNDA:0,_RNCNvNtCs3VzpdYZ24vU_8vibe_eye9help_tree16format_flag_line0B5_
FNDA:4,_RNCNvNtCs3VzpdYZ24vU_8vibe_eye9help_tree16format_flag_lines_0B5_
FNDA:0,_RNCNvNtCs3VzpdYZ24vU_8vibe_eye9help_tree22select_command_by_path0B5_
FNDA:10,_RNCNvNtCs3VzpdYZ24vU_8vibe_eye9help_tree26parse_help_tree_invocation0B5_
FNDA:0,_RINvNtCsfAYyu10MD3d_8vibe_eye9help_tree12run_for_pathNtNtB4_3cli3CliEB4_
FNDA:0,_RINvNtCsfAYyu10MD3d_8vibe_eye9help_tree15parse_usize_argNCNvB2_15process_one_arg0EB4_
FNDA:0,_RINvNtCsfAYyu10MD3d_8vibe_eye9help_tree16parse_string_argNCNvB2_15process_one_args_0EB4_
FNDA:0,_RINvNtCsfAYyu10MD3d_8vibe_eye9help_tree22generate_json_for_pathNtNtB4_3cli3CliEB4_
FNDA:0,_RNCNvNtCsfAYyu10MD3d_8vibe_eye9help_tree11parse_usize0B5_
FNDA:0,_RNCNvNtCsfAYyu10MD3d_8vibe_eye9help_tree12parse_string0B5_
FNDA:0,_RNCNvNtCsfAYyu10MD3d_8vibe_eye9help_tree15command_to_json0B5_
FNDA:0,_RNCNvNtCsfAYyu10MD3d_8vibe_eye9help_tree15process_one_arg0B5_
FNDA:0,_RNCNvNtCsfAYyu10MD3d_8vibe_eye9help_tree15process_one_args_0B5_
FNDA:0,_RNCNvNtCsfAYyu10MD3d_8vibe_eye9help_tree16format_flag_line0B5_
FNDA:0,_RNCNvNtCsfAYyu10MD3d_8vibe_eye9help_tree16format_flag_lines_0B5_
FNDA:0,_RNCNvNtCsfAYyu10MD3d_8vibe_eye9help_tree19format_command_line0B5_
FNDA:0,_RNCNvNtCsfAYyu10MD3d_8vibe_eye9help_tree19format_command_lines_0B5_
FNDA:0,_RNCNvNtCsfAYyu10MD3d_8vibe_eye9help_tree19render_command_text0B5_
FNDA:0,_RNCNvNtCsfAYyu10MD3d_8vibe_eye9help_tree19render_command_texts0_0B5_
FNDA:0,_RNCNvNtCsfAYyu10MD3d_8vibe_eye9help_tree19render_command_texts1_0B5_
FNDA:0,_RNCNvNtCsfAYyu10MD3d_8vibe_eye9help_tree19render_command_texts2_0B5_
FNDA:0,_RNCNvNtCsfAYyu10MD3d_8vibe_eye9help_tree19render_command_texts_0B5_
FNDA:0,_RNCNvNtCsfAYyu10MD3d_8vibe_eye9help_tree22select_command_by_path0B5_
FNDA:0,_RNCNvNtCsfAYyu10MD3d_8vibe_eye9help_tree26parse_help_tree_invocation0B5_
FNDA:0,_RNvXNtCsfAYyu10MD3d_8vibe_eye9help_treeNtB2_12HelpTreeOptsNtNtCs8nPosuWgJFh_4core7default7Default7default
FNDA:0,_RNvMs_NtCsfAYyu10MD3d_8vibe_eye9help_treeNtB4_10ParseState15into_invocation
FNDA:0,_RNvNtCsfAYyu10MD3d_8vibe_eye9help_tree11parse_usize
FNDA:0,_RNvNtCsfAYyu10MD3d_8vibe_eye9help_tree12parse_string
FNDA:0,_RNvNtCsfAYyu10MD3d_8vibe_eye9help_tree14option_to_json
FNDA:0,_RNvNtCsfAYyu10MD3d_8vibe_eye9help_tree15command_to_json
FNDA:0,_RNvNtCsfAYyu10MD3d_8vibe_eye9help_tree15command_to_text
FNDA:0,_RNvNtCsfAYyu10MD3d_8vibe_eye9help_tree15process_one_arg
FNDA:0,_RNvNtCsfAYyu10MD3d_8vibe_eye9help_tree15should_skip_arg
FNDA:0,_RNvNtCsfAYyu10MD3d_8vibe_eye9help_tree16format_flag_line
FNDA:0,_RNvNtCsfAYyu10MD3d_8vibe_eye9help_tree16next_tree_prefix
FNDA:0,_RNvNtCsfAYyu10MD3d_8vibe_eye9help_tree16parse_format_arg
FNDA:0,_RNvNtCsfAYyu10MD3d_8vibe_eye9help_tree17parse_tree_output
FNDA:0,_RNvNtCsfAYyu10MD3d_8vibe_eye9help_tree18parse_format_value
FNDA:0,_RNvNtCsfAYyu10MD3d_8vibe_eye9help_tree18positional_to_json
FNDA:0,_RNvNtCsfAYyu10MD3d_8vibe_eye9help_tree19collect_subcommands
FNDA:0,_RNvNtCsfAYyu10MD3d_8vibe_eye9help_tree19format_command_line
FNDA:0,_RNvNtCsfAYyu10MD3d_8vibe_eye9help_tree19insert_if_not_empty
FNDA:0,_RNvNtCsfAYyu10MD3d_8vibe_eye9help_tree19render_command_text
FNDA:0,_RNvNtCsfAYyu10MD3d_8vibe_eye9help_tree21collect_args_and_opts
FNDA:0,_RNvNtCsfAYyu10MD3d_8vibe_eye9help_tree21parse_tree_output_arg
FNDA:0,_RNvNtCsfAYyu10MD3d_8vibe_eye9help_tree22select_command_by_path
FNDA:0,_RNvNtCsfAYyu10MD3d_8vibe_eye9help_tree22should_skip_subcommand
FNDA:0,_RNvNtCsfAYyu10MD3d_8vibe_eye9help_tree26pad_and_append_description
FNDA:0,_RNvNtCsfAYyu10MD3d_8vibe_eye9help_tree26parse_help_tree_invocation
FNDA:2,_RINvNtCs7sAqA4TJs1D_11vibeeye_cli9help_tree15parse_usize_argNCNvB2_15process_one_arg0EB4_
FNDA:1,_RINvNtCs7sAqA4TJs1D_11vibeeye_cli9help_tree16parse_string_argNCNvB2_15process_one_args_0EB4_
FNDA:1,_RNCNvNtCs7sAqA4TJs1D_11vibeeye_cli9help_tree11parse_usize0B5_
FNDA:0,_RNCNvNtCs7sAqA4TJs1D_11vibeeye_cli9help_tree12parse_string0B5_
FNDA:2,_RNCNvNtCs7sAqA4TJs1D_11vibeeye_cli9help_tree15command_to_json0B5_
FNDA:1,_RNCNvNtCs7sAqA4TJs1D_11vibeeye_cli9help_tree15process_one_arg0B5_
FNDA:1,_RNCNvNtCs7sAqA4TJs1D_11vibeeye_cli9help_tree15process_one_args_0B5_
FNDA:0,_RNCNvNtCs7sAqA4TJs1D_11vibeeye_cli9help_tree16format_flag_line0B5_
FNDA:4,_RNCNvNtCs7sAqA4TJs1D_11vibeeye_cli9help_tree16format_flag_lines_0B5_
FNDA:0,_RNCNvNtCs7sAqA4TJs1D_11vibeeye_cli9help_tree22select_command_by_path0B5_
FNDA:10,_RNCNvNtCs7sAqA4TJs1D_11vibeeye_cli9help_tree26parse_help_tree_invocation0B5_
FNDA:1,_RNvNtNtCs7sAqA4TJs1D_11vibeeye_cli9help_tree5testss_23test_parse_no_help_tree
FNDA:1,_RNvNtNtCs7sAqA4TJs1D_11vibeeye_cli9help_tree5testss_24test_insert_if_not_empty
FNDA:1,_RNvNtNtCs7sAqA4TJs1D_11vibeeye_cli9help_tree5testss_24test_parse_invalid_depth
FNDA:1,_RNvNtNtCs7sAqA4TJs1D_11vibeeye_cli9help_tree5testss_25test_parse_help_tree_json
FNDA:1,_RNvNtNtCs7sAqA4TJs1D_11vibeeye_cli9help_tree5testss_25test_parse_help_tree_path
FNDA:1,_RNvNtNtCs7sAqA4TJs1D_11vibeeye_cli9help_tree5testss_26test_command_to_json_basic
FNDA:1,_RNvNtNtCs7sAqA4TJs1D_11vibeeye_cli9help_tree5testss_26test_parse_help_tree_basic
FNDA:1,_RNvNtNtCs7sAqA4TJs1D_11vibeeye_cli9help_tree5testss_26test_parse_help_tree_depth
FNDA:1,_RNvNtNtCs7sAqA4TJs1D_11vibeeye_cli9help_tree5testss_27test_parse_help_tree_ignore
FNDA:1,_RNvNtNtCs7sAqA4TJs1D_11vibeeye_cli9help_tree5testss_30test_command_to_json_with_args
FNDA:1,_RNvNtNtCs7sAqA4TJs1D_11vibeeye_cli9help_tree5testss_30test_parse_help_tree_all_flags
FNDA:1,_RNvNtNtCs7sAqA4TJs1D_11vibeeye_cli9help_tree5testss_31test_command_to_json_omit_flags
FNDA:1,_RNvNtNtCs7sAqA4TJs1D_11vibeeye_cli9help_tree5testss_31test_format_flag_line_long_only
FNDA:1,_RNvNtNtCs7sAqA4TJs1D_11vibeeye_cli9help_tree5testss_32test_collect_args_and_opts_empty
FNDA:1,_RNvNtNtCs7sAqA4TJs1D_11vibeeye_cli9help_tree5testss_32test_command_to_json_depth_limit
FNDA:1,_RNvNtNtCs7sAqA4TJs1D_11vibeeye_cli9help_tree5testss_32test_select_command_by_path_root
FNDA:1,_RNvNtNtCs7sAqA4TJs1D_11vibeeye_cli9help_tree5testss_33test_format_flag_line_id_fallback
FNDA:1,_RNvNtNtCs7sAqA4TJs1D_11vibeeye_cli9help_tree5testss_36test_format_flag_line_short_and_long
FNDA:1,_RNvNtNtCs7sAqA4TJs1D_11vibeeye_cli9help_tree5testss_37test_collect_args_and_opts_positional
FNDA:1,_RNvNtNtCs7sAqA4TJs1D_11vibeeye_cli9help_tree5testss_37test_collect_args_and_opts_skips_help
FNDA:1,_RNvNtNtCs7sAqA4TJs1D_11vibeeye_cli9help_tree5testss_37test_command_to_json_with_subcommands
FNDA:1,_RNvNtNtCs7sAqA4TJs1D_11vibeeye_cli9help_tree5testss_37test_format_flag_line_with_value_hint
FNDA:6,_RNvMs_NtCs7sAqA4TJs1D_11vibeeye_cli9help_treeNtB4_10ParseState15into_invocation
FNDA:2,_RNvNtCs7sAqA4TJs1D_11vibeeye_cli9help_tree11parse_usize
FNDA:5,_RNvNtCs7sAqA4TJs1D_11vibeeye_cli9help_tree12parse_string
FNDA:1,_RNvNtCs7sAqA4TJs1D_11vibeeye_cli9help_tree14option_to_json
FNDA:6,_RNvNtCs7sAqA4TJs1D_11vibeeye_cli9help_tree15command_to_json
FNDA:14,_RNvNtCs7sAqA4TJs1D_11vibeeye_cli9help_tree15process_one_arg
FNDA:6,_RNvNtCs7sAqA4TJs1D_11vibeeye_cli9help_tree15should_skip_arg
FNDA:4,_RNvNtCs7sAqA4TJs1D_11vibeeye_cli9help_tree16format_flag_line
FNDA:1,_RNvNtCs7sAqA4TJs1D_11vibeeye_cli9help_tree16parse_format_arg
FNDA:1,_RNvNtCs7sAqA4TJs1D_11vibeeye_cli9help_tree17parse_tree_output
FNDA:1,_RNvNtCs7sAqA4TJs1D_11vibeeye_cli9help_tree18parse_format_value
FNDA:3,_RNvNtCs7sAqA4TJs1D_11vibeeye_cli9help_tree18positional_to_json
FNDA:6,_RNvNtCs7sAqA4TJs1D_11vibeeye_cli9help_tree19collect_subcommands
FNDA:20,_RNvNtCs7sAqA4TJs1D_11vibeeye_cli9help_tree19insert_if_not_empty
FNDA:9,_RNvNtCs7sAqA4TJs1D_11vibeeye_cli9help_tree21collect_args_and_opts
FNDA:1,_RNvNtCs7sAqA4TJs1D_11vibeeye_cli9help_tree21parse_tree_output_arg
FNDA:1,_RNvNtCs7sAqA4TJs1D_11vibeeye_cli9help_tree22select_command_by_path
FNDA:1,_RNvNtCs7sAqA4TJs1D_11vibeeye_cli9help_tree22should_skip_subcommand
FNDA:4,_RNvNtCs7sAqA4TJs1D_11vibeeye_cli9help_tree26pad_and_append_description
FNDA:8,_RNvNtCs7sAqA4TJs1D_11vibeeye_cli9help_tree26parse_help_tree_invocation
FNDA:0,_RINvNtCs7sAqA4TJs1D_11vibeeye_cli9help_tree12run_for_pathpEB4_
FNDA:0,_RINvNtCs7sAqA4TJs1D_11vibeeye_cli9help_tree22generate_json_for_pathpEB4_
FNDA:0,_RNCNvNtCs7sAqA4TJs1D_11vibeeye_cli9help_tree19format_command_line0B5_
FNDA:0,_RNCNvNtCs7sAqA4TJs1D_11vibeeye_cli9help_tree19format_command_lines_0B5_
FNDA:0,_RNCNvNtCs7sAqA4TJs1D_11vibeeye_cli9help_tree19render_command_text0B5_
FNDA:0,_RNCNvNtCs7sAqA4TJs1D_11vibeeye_cli9help_tree19render_command_texts0_0B5_
FNDA:0,_RNCNvNtCs7sAqA4TJs1D_11vibeeye_cli9help_tree19render_command_texts1_0B5_
FNDA:0,_RNCNvNtCs7sAqA4TJs1D_11vibeeye_cli9help_tree19render_command_texts2_0B5_
FNDA:0,_RNCNvNtCs7sAqA4TJs1D_11vibeeye_cli9help_tree19render_command_texts_0B5_
FNDA:0,_RNvNtCs7sAqA4TJs1D_11vibeeye_cli9help_tree15command_to_text
FNDA:0,_RNvNtCs7sAqA4TJs1D_11vibeeye_cli9help_tree16next_tree_prefix
FNDA:0,_RNvNtCs7sAqA4TJs1D_11vibeeye_cli9help_tree19format_command_line
FNDA:0,_RNvNtCs7sAqA4TJs1D_11vibeeye_cli9help_tree19render_command_text
FNDA:0,_RNvXNtCs7sAqA4TJs1D_11vibeeye_cli9help_treeNtB2_12HelpTreeOptsNtNtCs8nPosuWgJFh_4core7default7Default7default
FNF:67
FNH:51
DA:73,0
DA:74,0
DA:75,0
DA:76,0
DA:77,0
DA:78,0
DA:79,0
DA:80,0
DA:86,16
DA:89,20
DA:90,2
DA:91,14
DA:93,14
DA:94,14
DA:95,14
DA:96,14
DA:98,14
DA:99,40
DA:100,28
DA:101,26
DA:104,12
DA:105,16
DA:109,28
DA:110,28
DA:111,28
DA:112,28
DA:113,28
DA:114,28
DA:115,28
DA:116,28
DA:117,14
DA:118,14
DA:120,14
DA:121,4
DA:123,10
DA:124,2
DA:126,8
DA:127,2
DA:128,2
DA:130,6
DA:131,4
DA:132,2
DA:133,2
DA:134,2
DA:135,2
DA:138,28
DA:140,4
DA:141,4
DA:142,4
DA:143,4
DA:144,4
DA:145,4
DA:146,4
DA:147,4
DA:148,4
DA:149,2
DA:150,2
DA:151,4
DA:153,2
DA:154,2
DA:155,2
DA:156,2
DA:157,2
DA:158,2
DA:159,2
DA:160,2
DA:161,2
DA:162,2
DA:163,2
DA:164,2
DA:166,2
DA:167,2
DA:168,2
DA:169,2
DA:170,2
DA:171,2
DA:172,2
DA:173,2
DA:174,2
DA:175,2
DA:177,2
DA:178,2
DA:179,2
DA:180,2
DA:181,2
DA:182,2
DA:183,2
DA:184,2
DA:185,2
DA:186,2
DA:187,2
DA:200,12
DA:201,12
DA:202,12
DA:203,12
DA:204,12
DA:205,12
DA:206,12
DA:207,12
DA:208,12
DA:209,12
DA:210,12
DA:213,10
DA:214,10
DA:215,10
DA:216,10
DA:217,10
DA:219,4
DA:220,4
DA:221,4
DA:222,4
DA:223,4
DA:224,4
DA:226,2
DA:227,2
DA:228,2
DA:229,2
DA:230,2
DA:231,0
DA:233,2
DA:235,2
DA:236,2
DA:237,2
DA:238,0
DA:240,2
DA:248,1
DA:249,1
DA:250,1
DA:251,1
DA:252,1
DA:253,1
DA:255,1
DA:257,1
DA:258,1
DA:260,1
DA:261,1
DA:262,1
DA:263,1
DA:264,1
DA:266,1
DA:268,1
DA:273,0
DA:274,0
DA:275,0
DA:276,0
DA:277,0
DA:278,0
DA:280,0
DA:282,0
DA:283,0
DA:285,0
DA:286,0
DA:287,0
DA:288,0
DA:289,0
DA:290,0
DA:291,0
DA:292,0
DA:293,0
DA:294,0
DA:295,0
DA:296,0
DA:297,0
DA:300,0
DA:301,0
DA:303,3
DA:304,3
DA:305,3
DA:307,3
DA:308,0
DA:309,0
DA:310,0
DA:311,0
DA:312,0
DA:314,0
DA:315,0
DA:318,3
DA:319,3
DA:324,0
DA:325,0
DA:326,0
DA:327,0
DA:328,0
DA:329,0
DA:330,0
DA:331,0
DA:332,0
DA:333,0
DA:334,0
DA:336,0
DA:337,0
DA:338,0
DA:339,0
DA:340,0
DA:341,0
DA:342,0
DA:343,0
DA:344,0
DA:345,0
DA:346,0
DA:347,0
DA:348,0
DA:349,0
DA:350,0
DA:351,0
DA:352,0
DA:354,0
DA:356,0
DA:357,0
DA:358,0
DA:359,0
DA:360,0
DA:361,0
DA:362,0
DA:363,0
DA:365,0
DA:366,0
DA:367,0
DA:368,0
DA:369,0
DA:370,0
DA:372,0
DA:374,0
DA:375,0
DA:376,0
DA:377,0
DA:378,0
DA:380,0
DA:381,0
DA:382,0
DA:383,0
DA:384,0
DA:385,0
DA:386,0
DA:387,0
DA:388,0
DA:389,0
DA:390,0
DA:391,0
DA:392,0
DA:393,0
DA:394,0
DA:396,0
DA:397,0
DA:398,0
DA:399,0
DA:400,0
DA:401,0
DA:403,0
DA:404,0
DA:405,0
DA:406,0
DA:407,0
DA:408,0
DA:409,0
DA:410,0
DA:412,0
DA:413,0
DA:414,0
DA:415,0
DA:417,8
DA:418,8
DA:419,8
DA:421,8
DA:422,8
DA:423,2
DA:424,6
DA:425,8
DA:426,6
DA:427,6
DA:428,8
DA:429,2
DA:430,6
DA:432,8
DA:434,8
DA:435,8
DA:436,6
DA:437,8
DA:438,2
DA:439,2
DA:440,2
DA:441,2
DA:442,2
DA:443,0
DA:444,6
DA:446,8
DA:447,8
DA:448,8
DA:449,8
DA:451,8
DA:452,8
DA:453,8
DA:454,8
DA:455,8
DA:456,8
DA:457,8
DA:458,8
DA:460,0
DA:461,0
DA:462,0
DA:463,0
DA:464,0
DA:466,0
DA:468,0
DA:470,17
DA:471,17
DA:472,17
DA:473,17
DA:474,17
DA:475,17
DA:476,17
DA:477,17
DA:478,17
DA:479,17
DA:480,17
DA:481,17
DA:482,17
DA:483,17
DA:486,17
DA:487,17
DA:488,17
DA:490,17
DA:491,17
DA:492,17
DA:493,17
DA:494,17
DA:495,17
DA:496,17
DA:497,0
DA:498,17
DA:500,17
DA:501,17
DA:503,55
DA:504,55
DA:505,16
DA:506,39
DA:507,55
DA:509,23
DA:510,23
DA:511,23
DA:513,40
DA:514,40
DA:515,10
DA:516,30
DA:517,30
DA:518,10
DA:519,20
DA:520,20
DA:521,20
DA:524,23
DA:525,23
DA:527,40
DA:528,40
DA:529,40
DA:530,40
DA:532,10
DA:533,10
DA:534,10
DA:535,10
DA:536,10
DA:537,10
DA:538,10
DA:540,20
DA:541,20
DA:542,20
DA:543,20
DA:544,20
DA:545,20
DA:546,20
DA:547,20
DA:548,20
DA:549,20
DA:550,9
DA:551,11
DA:552,20
DA:553,4
DA:554,16
DA:555,20
DA:556,20
DA:557,20
DA:558,20
DA:559,20
DA:561,17
DA:562,17
DA:563,17
DA:564,17
DA:565,17
DA:566,17
DA:567,17
DA:568,17
DA:569,17
DA:570,2
DA:571,2
DA:572,0
DA:573,15
DA:575,15
DA:576,15
DA:577,7
DA:578,1
DA:579,6
DA:580,6
DA:581,6
DA:582,6
DA:583,6
DA:584,6
DA:585,6
DA:586,6
DA:587,0
DA:589,15
DA:590,17
DA:592,7
DA:593,7
DA:594,7
DA:601,2
DA:602,2
DA:603,2
DA:604,2
DA:605,2
DA:608,2
DA:609,2
DA:610,2
DA:611,2
DA:612,2
DA:613,2
DA:616,2
DA:617,2
DA:618,2
DA:619,2
DA:620,2
DA:622,2
DA:623,2
DA:624,2
DA:627,2
DA:628,2
DA:629,2
DA:630,2
DA:631,2
DA:634,2
DA:635,2
DA:636,2
DA:637,2
DA:638,2
DA:640,2
DA:641,2
DA:642,2
DA:645,2
DA:646,2
DA:647,2
DA:648,2
DA:649,2
DA:650,2
DA:652,2
DA:653,2
DA:654,2
DA:655,2
DA:658,2
DA:659,2
DA:660,2
DA:661,2
DA:662,2
DA:665,2
DA:666,2
DA:667,2
DA:668,2
DA:669,2
DA:671,2
DA:672,2
DA:675,2
DA:680,2
DA:681,2
DA:682,2
DA:683,2
DA:686,2
DA:688,2
DA:689,2
DA:690,2
DA:691,2
DA:692,2
DA:693,2
DA:696,2
DA:698,2
DA:699,2
DA:700,2
DA:701,2
DA:702,2
DA:703,2
DA:704,2
DA:706,2
DA:707,2
DA:708,2
DA:709,2
DA:711,2
DA:712,2
DA:713,2
DA:714,2
DA:715,2
DA:718,2
DA:720,2
DA:721,2
DA:722,2
DA:723,2
DA:724,2
DA:725,2
DA:728,2
DA:730,2
DA:731,2
DA:732,2
DA:733,2
DA:736,2
DA:738,2
DA:739,2
DA:740,2
DA:741,2
DA:744,2
DA:746,2
DA:747,2
DA:748,2
DA:749,2
DA:750,2
DA:753,2
DA:755,2
DA:756,2
DA:757,2
DA:758,2
DA:759,2
DA:762,2
DA:764,2
DA:765,2
DA:766,2
DA:767,2
DA:768,2
DA:769,2
DA:770,2
DA:773,2
DA:774,2
DA:775,2
DA:776,2
DA:777,2
DA:778,2
DA:779,2
DA:782,2
DA:784,2
DA:785,2
DA:786,2
DA:787,2
DA:788,2
DA:790,2
DA:791,2
DA:792,2
DA:793,2
DA:794,2
DA:795,2
DA:798,2
DA:800,2
DA:801,2
DA:802,2
DA:803,2
DA:805,2
DA:806,2
DA:808,2
DA:809,2
DA:810,2
DA:811,2
DA:814,2
DA:816,2
DA:817,2
DA:818,2
DA:819,2
DA:820,2
DA:821,2
DA:822,2
DA:824,2
DA:825,2
DA:826,2
DA:827,2
DA:828,2
DA:829,2
DA:832,2
DA:834,2
DA:835,2
DA:836,2
DA:838,2
DA:839,2
DA:840,2
DA:841,2
DA:842,2
BRF:0
BRH:0
LF:602
LH:457
end_of_record
SF:/home/james/Projects/VibeEye/crates/vibeeye-cli/src/main.rs
FN:24,_RNCNvCs3VzpdYZ24vU_8vibe_eye10async_main0B3_
FN:13,_RNCNvCs3VzpdYZ24vU_8vibe_eye4main0B3_
FN:16,_RNCNvCs3VzpdYZ24vU_8vibe_eye4mains_0B3_
FN:24,_RNvCs3VzpdYZ24vU_8vibe_eye10async_main
FN:10,_RNvCs3VzpdYZ24vU_8vibe_eye4main
FN:24,_RNCNvCsfAYyu10MD3d_8vibe_eye10async_main0B3_
FN:13,_RNCNvCsfAYyu10MD3d_8vibe_eye4main0B3_
FN:16,_RNCNvCsfAYyu10MD3d_8vibe_eye4mains_0B3_
FN:24,_RNvCsfAYyu10MD3d_8vibe_eye10async_main
FN:10,_RNvCsfAYyu10MD3d_8vibe_eye4main
FNDA:0,_RNCNvCs3VzpdYZ24vU_8vibe_eye10async_main0B3_
FNDA:0,_RNCNvCs3VzpdYZ24vU_8vibe_eye4main0B3_
FNDA:0,_RNCNvCs3VzpdYZ24vU_8vibe_eye4mains_0B3_
FNDA:0,_RNvCs3VzpdYZ24vU_8vibe_eye10async_main
FNDA:0,_RNvCs3VzpdYZ24vU_8vibe_eye4main
FNDA:0,_RNCNvCsfAYyu10MD3d_8vibe_eye10async_main0B3_
FNDA:0,_RNCNvCsfAYyu10MD3d_8vibe_eye4main0B3_
FNDA:0,_RNCNvCsfAYyu10MD3d_8vibe_eye4mains_0B3_
FNDA:0,_RNvCsfAYyu10MD3d_8vibe_eye10async_main
FNDA:0,_RNvCsfAYyu10MD3d_8vibe_eye4main
FNF:5
FNH:0
DA:10,0
DA:11,0
DA:12,0
DA:13,0
DA:14,0
DA:15,0
DA:16,0
DA:17,0
DA:18,0
DA:20,0
DA:21,0
DA:22,0
DA:24,0
DA:25,0
DA:27,0
DA:28,0
DA:29,0
DA:30,0
DA:31,0
DA:33,0
DA:34,0
DA:35,0
DA:36,0
DA:37,0
DA:38,0
DA:40,0
DA:41,0
BRF:0
BRH:0
LF:30
LH:0
end_of_record
SF:/home/james/Projects/VibeEye/crates/vibeeye-core/src/domain.rs
FN:11,_RNvXNtCs1tAsrLSJFoM_12vibeeye_core6domainNtB2_8ViewportNtNtCs8nPosuWgJFh_4core7default7Default7default
FN:28,_RNvXs_NtCs1tAsrLSJFoM_12vibeeye_core6domainNtB4_14BrowserContextNtNtCs8nPosuWgJFh_4core7default7Default7default
FN:11,_RNvXNtCsiUqaY3P07nJ_12vibeeye_core6domainNtB2_8ViewportNtNtCs8nPosuWgJFh_4core7default7Default7default
FN:28,_RNvXs_NtCsiUqaY3P07nJ_12vibeeye_core6domainNtB4_14BrowserContextNtNtCs8nPosuWgJFh_4core7default7Default7default
FNDA:10,_RNvXNtCs1tAsrLSJFoM_12vibeeye_core6domainNtB2_8ViewportNtNtCs8nPosuWgJFh_4core7default7Default7default
FNDA:0,_RNvXs_NtCs1tAsrLSJFoM_12vibeeye_core6domainNtB4_14BrowserContextNtNtCs8nPosuWgJFh_4core7default7Default7default
FNDA:0,_RNvXNtCsiUqaY3P07nJ_12vibeeye_core6domainNtB2_8ViewportNtNtCs8nPosuWgJFh_4core7default7Default7default
FNDA:0,_RNvXs_NtCsiUqaY3P07nJ_12vibeeye_core6domainNtB4_14BrowserContextNtNtCs8nPosuWgJFh_4core7default7Default7default
FNF:2
FNH:1
DA:11,10
DA:12,10
DA:13,10
DA:14,10
DA:15,10
DA:16,10
DA:28,0
DA:29,0
DA:30,0
DA:31,0
DA:32,0
DA:33,0
DA:34,0
BRF:0
BRH:0
LF:13
LH:6
end_of_record
SF:/home/james/Projects/VibeEye/crates/vibeeye-mcp/src/handler.rs
FN:95,_RINvNtCshLHs7TG3YWV_11vibeeye_mcp7handler11tool_resultpEB4_
FN:99,_RNCINvNtCshLHs7TG3YWV_11vibeeye_mcp7handler11tool_resultpE0B6_
FN:83,_RNCNCNvNtCshLHs7TG3YWV_11vibeeye_mcp7handler12call_extract00B7_
FN:91,_RNCNCNvNtCshLHs7TG3YWV_11vibeeye_mcp7handler12call_extract0s_0B7_
FN:54,_RNCNCNvNtCshLHs7TG3YWV_11vibeeye_mcp7handler13call_navigate00B7_
FN:62,_RNCNCNvNtCshLHs7TG3YWV_11vibeeye_mcp7handler13call_navigate0s_0B7_
FN:70,_RNCNCNvNtCshLHs7TG3YWV_11vibeeye_mcp7handler13call_snapshot00B7_
FN:75,_RNCNCNvNtCshLHs7TG3YWV_11vibeeye_mcp7handler13call_snapshot0s_0B7_
FN:81,_RNCNvNtCshLHs7TG3YWV_11vibeeye_mcp7handler12call_extract0B5_
FN:52,_RNCNvNtCshLHs7TG3YWV_11vibeeye_mcp7handler13call_navigate0B5_
FN:68,_RNCNvNtCshLHs7TG3YWV_11vibeeye_mcp7handler13call_snapshot0B5_
FN:79,_RNvNtCshLHs7TG3YWV_11vibeeye_mcp7handler12call_extract
FN:50,_RNvNtCshLHs7TG3YWV_11vibeeye_mcp7handler13call_navigate
FN:66,_RNvNtCshLHs7TG3YWV_11vibeeye_mcp7handler13call_snapshot
FN:39,_RNvXNtCshLHs7TG3YWV_11vibeeye_mcp7handlerNtB2_17VibeEyeMcpHandlerNtNtNtCs6nz6RISxdzT_12rust_mcp_sdk12mcp_handlers18mcp_server_handler13ServerHandler24handle_call_tool_request
FN:23,_RNvXNtCshLHs7TG3YWV_11vibeeye_mcp7handlerNtB2_17VibeEyeMcpHandlerNtNtNtCs6nz6RISxdzT_12rust_mcp_sdk12mcp_handlers18mcp_server_handler13ServerHandler25handle_list_tools_request
FNDA:0,_RINvNtCshLHs7TG3YWV_11vibeeye_mcp7handler11tool_resultpEB4_
FNDA:0,_RNCINvNtCshLHs7TG3YWV_11vibeeye_mcp7handler11tool_resultpE0B6_
FNDA:0,_RNCNCNvNtCshLHs7TG3YWV_11vibeeye_mcp7handler12call_extract00B7_
FNDA:0,_RNCNCNvNtCshLHs7TG3YWV_11vibeeye_mcp7handler12call_extract0s_0B7_
FNDA:0,_RNCNCNvNtCshLHs7TG3YWV_11vibeeye_mcp7handler13call_navigate00B7_
FNDA:0,_RNCNCNvNtCshLHs7TG3YWV_11vibeeye_mcp7handler13call_navigate0s_0B7_
FNDA:0,_RNCNCNvNtCshLHs7TG3YWV_11vibeeye_mcp7handler13call_snapshot00B7_
FNDA:0,_RNCNCNvNtCshLHs7TG3YWV_11vibeeye_mcp7handler13call_snapshot0s_0B7_
FNDA:0,_RNCNvNtCshLHs7TG3YWV_11vibeeye_mcp7handler12call_extract0B5_
FNDA:0,_RNCNvNtCshLHs7TG3YWV_11vibeeye_mcp7handler13call_navigate0B5_
FNDA:0,_RNCNvNtCshLHs7TG3YWV_11vibeeye_mcp7handler13call_snapshot0B5_
FNDA:0,_RNvNtCshLHs7TG3YWV_11vibeeye_mcp7handler12call_extract
FNDA:0,_RNvNtCshLHs7TG3YWV_11vibeeye_mcp7handler13call_navigate
FNDA:0,_RNvNtCshLHs7TG3YWV_11vibeeye_mcp7handler13call_snapshot
FNDA:0,_RNvXNtCshLHs7TG3YWV_11vibeeye_mcp7handlerNtB2_17VibeEyeMcpHandlerNtNtNtCs6nz6RISxdzT_12rust_mcp_sdk12mcp_handlers18mcp_server_handler13ServerHandler24handle_call_tool_request
FNDA:0,_RNvXNtCshLHs7TG3YWV_11vibeeye_mcp7handlerNtB2_17VibeEyeMcpHandlerNtNtNtCs6nz6RISxdzT_12rust_mcp_sdk12mcp_handlers18mcp_server_handler13ServerHandler25handle_list_tools_request
FNF:16
FNH:0
DA:23,0
DA:33,0
DA:39,0
DA:47,0
DA:50,0
DA:51,0
DA:52,0
DA:53,0
DA:54,0
DA:55,0
DA:56,0
DA:57,0
DA:58,0
DA:59,0
DA:60,0
DA:61,0
DA:62,0
DA:63,0
DA:64,0
DA:66,0
DA:67,0
DA:68,0
DA:69,0
DA:70,0
DA:71,0
DA:72,0
DA:73,0
DA:74,0
DA:75,0
DA:76,0
DA:77,0
DA:79,0
DA:80,0
DA:81,0
DA:82,0
DA:83,0
DA:84,0
DA:85,0
DA:86,0
DA:87,0
DA:88,0
DA:89,0
DA:90,0
DA:91,0
DA:92,0
DA:93,0
DA:95,0
DA:96,0
DA:97,0
DA:98,0
DA:99,0
DA:100,0
DA:101,0
BRF:0
BRH:0
LF:63
LH:0
end_of_record
SF:/home/james/Projects/VibeEye/crates/vibeeye-mcp/src/main.rs
FN:18,_RNCNvCshLHs7TG3YWV_11vibeeye_mcp4main0B3_
FN:18,_RNvCshLHs7TG3YWV_11vibeeye_mcp4main
FNDA:0,_RNCNvCshLHs7TG3YWV_11vibeeye_mcp4main0B3_
FNDA:0,_RNvCshLHs7TG3YWV_11vibeeye_mcp4main
FNF:2
FNH:0
DA:18,0
DA:19,0
DA:20,0
DA:22,0
DA:23,0
DA:24,0
DA:25,0
DA:26,0
DA:27,0
DA:28,0
DA:29,0
DA:30,0
DA:31,0
DA:32,0
DA:33,0
DA:34,0
DA:35,0
DA:36,0
DA:37,0
DA:38,0
DA:40,0
DA:41,0
DA:43,0
DA:44,0
DA:45,0
DA:46,0
DA:47,0
DA:48,0
DA:49,0
DA:50,0
DA:52,0
DA:53,0
DA:54,0
DA:55,0
DA:56,0
DA:57,0
DA:58,0
DA:59,0
DA:60,0
DA:61,0
BRF:0
BRH:0
LF:50
LH:0
end_of_record
SF:/home/james/Projects/VibeEye/crates/vibeeye-mcp/src/tools.rs
FN:40,_RNvNtCshLHs7TG3YWV_11vibeeye_mcp5tools14default_format
FNDA:0,_RNvNtCshLHs7TG3YWV_11vibeeye_mcp5tools14default_format
FNF:1
FNH:0
DA:40,0
DA:41,0
DA:42,0
BRF:0
BRH:0
LF:3
LH:0
end_of_record